(lp0
(lp1
S'\xef\xbb\xbfTime Rush\n'
p2
aS'Mercury Plains\n'
p3
aS'Robo-Dog\n'
p4
aS'The Forest\n'
p5
aS'The Masked Saint\n'
p6
aS'Diablo\n'
p7
aS'The Boy\n'
p8
aS'Dirty Grandpa\n'
p9
aS'Monster Hunt\n'
p10
aS'Kung Fu Panda 3\n'
p11
aS'Mr. Pig\n'
p12
aS'The Witch\n'
p13
aS'Fifty Shades of Black\n'
p14
aS'The Choice\n'
p15
aS"Dad's Army\n"
p16
aS'Hail, Caesar!\n'
p17
aS'The Monkey King 2\n'
p18
aS'Pride and Prejudice and Zombies\n'
p19
aS'The Mermaid\n'
p20
aS'Deadpool\n'
p21
aS'Zootopia\n'
p22
aS'Gods of Egypt\n'
p23
aS'Standoff\n'
p24
aS'Knight of Cups\n'
p25
aS'London Has Fallen\n'
p26
aS'The Other Side of the Door\n'
p27
aS'Whiskey Tango Foxtrot\n'
p28
aS'The Bronze\n'
p29
aS'The Divergent Series: Allegiant\n'
p30
aS'Batman v Superman: Dawn of Justice\n'
p31
aS'My Big Fat Greek Wedding 2\n'
p32
aS"They're Watching\n"
p33
aS'Countdown\n'
p34
aS'The Boss\n'
p35
aS'Demolition\n'
p36
aS'Hush\n'
p37
aS'Captain America: Civil War\n'
p38
aS"Mother's Day\n"
p39
aS'Criminal\n'
p40
aS'Green Room\n'
p41
aS'The Jungle Book\n'
p42
aS'Elvis & Nixon\n'
p43
aS"The Huntsman: Winter's WarSniper: Special Ops\n"
p44
aS'The Angry Birds Movie\n'
p45
aS'X-Men: Apocalypse\n'
p46
aS'Caf\xc3\xa9 Society\n'
p47
aS'The Darkness\n'
p48
aS'Money Monster\n'
p49
aS'The Nice Guys\n'
p50
aS'Teenage Mutant Ninja Turtles\n'
p51
aS'Now You See Me\n'
p52
aS'The Conjuring\n'
p53
aS'Central Intelligence\n'
p54
aS'Genius\n'
p55
aS'Finding Dory\n'
p56
aS'Independence Day: Resurgence\n'
p57
aS'The Legend of Tarzan\n'
p58
aS'Carnage Park\n'
p59
aS'The Infiltrator\n'
p60
aS'Ghostbusters\n'
p61
aS'Caf\xc3\xa9 Society\n'
p62
aS'Ice Age: Collision Course\n'
p63
aS'Star Trek Beyond\n'
p64
aS'Lights Out\n'
p65
aS'Nerve\n'
p66
aS'Jason Bourne\n'
p67
aS'Bad Moms\n'
p68
aS'Suicide Squad\n'
p69
aS'Nine Lives\n'
p70
aS'Misfortune\n'
p71
aS'Sausage Party\n'
p72
aS'Disorder\n'
p73
aS'Little Men\n'
p74
aS'War Dogs\n'
p75
aS'Ben-Hur\n'
p76
aS"Don't Breathe\n"
p77
aS'The Mechanic\n'
p78
aS'Hands of Stone\n'
p79
aS'The Light Between Oceans\n'
p80
aS'Sully\n'
p81
aS'When the Bough Breaks\n'
p82
aS'The Disappointments Room\n'
p83
aS'Blair Witch\n'
p84
aS'Snowden\n'
p85
aS'Cardboard Boxer\n'
p86
aS'The Magnificent Seven\n'
p87
aS'Storks\n'
p88
aS'Deepwater Horizon\n'
p89
aS"Miss Peregrine's Home for Peculiar Children\n"
p90
aS'Masterminds\n'
p91
aS'The Girl on the Train\n'
p92
aS'The Birth of a Nation\n'
p93
aS'Voyage of Time\n'
p94
aS'The Accountant\n'
p95
aS'Little Sister\n'
p96
aS'The River Thief\n'
p97
aS'Jack Reacher\n'
p98
aS'Ouija: Origin of Evil\n'
p99
aS'Moonlight\n'
p100
aS'American Pastoral\n'
p101
aS'Inferno\n'
p102
aS'Doctor Strange\n'
p103
aS'Trolls\n'
p104
aS'Hacksaw Ridge\n'
p105
aS'Arrival\n'
p106
aS'The Monster\n'
p107
aS'Fantastic Beasts and Where to Find Them\n'
p108
aS'Nocturnal Animals\n'
p109
aS'Moana\n'
p110
aS'Allied\n'
p111
aS'Believe\n'
p112
aS'The Comedian\n'
p113
aS'Man Down\n'
p114
aS'Nerdland\n'
p115
aS'The Bounce Back\n'
p116
aS'La La Land\n'
p117
aS'Office Christmas Party\n'
p118
aS'Rogue One\n'
p119
aS'Fences\n'
p120
aS'The Founder\n'
p121
aS"Assassin's Creed\n"
p122
aS'Passengers\n'
p123
aS'Patriots Day\n'
p124
aS'A Monster Calls\n'
p125
aS'Silence\n'
p126
aS'Hidden Figures\n'
p127
aS'Live by Night\n'
p128
aS'Bride Wars\n'
p129
aS'Not Easily Broken\n'
p130
aS'The Unborn\n'
p131
aS'Hotel for Dogs\n'
p132
aS'Paul Blart: Mall Cop\n'
p133
aS'Chandni Chowk to China\n'
p134
aS'Cherry Blossoms\n'
p135
aS'Inkheart\n'
p136
aS'The Dark Knight\n'
p137
aS'Donkey Punch\n'
p138
aS'Ink\n'
p139
aS'Possession\n'
p140
aS'Outlander\n'
p141
aS'Taken\n'
p142
aS'The Class\n'
p143
aS'The Pink Panther 2\n'
p144
aS'Push\n'
p145
aS'Fanboys\n'
p146
aS'Confessions of a Shopaholic\n'
p147
aS'Friday the 13th\n'
p148
aS'The International\n'
p149
aS'Two Lovers\n'
p150
aS'Fired Up\n'
p151
aS'The Girl with the Dragon Tattoo\n'
p152
aS'Watchmen\n'
p153
aS'Horsemen\n'
p154
aS'Race to Witch Mountain\n'
p155
aS'Brothers at War\n'
p156
aS'The Cake Eaters\n'
p157
aS'Adventureland\n'
p158
aS'Fast & Furious\n'
p159
aS'Dragonball Evolution\n'
p160
aS'Hannah Montana: The Movie\n'
p161
aS'Observe and Report\n'
p162
aS'State of Play\n'
p163
aS'American Violet\n'
p164
aS'Every Little Step\n'
p165
aS'Obsessed\n'
p166
aS'The Soloist\n'
p167
aS'The Informers\n'
p168
aS'Battle for Terra\n'
p169
aS'Ghosts of Girlfriends Past\n'
p170
aS'X-Men Origins: Wolverine\n'
p171
aS'The Limits of Control\n'
p172
aS'The Merry Gentleman\n'
p173
aS'Next Day Air\n'
p174
aS'Star Trek\n'
p175
aS'Angels & Demons\n'
p176
aS'The Brothers Bloom\n'
p177
aS'Management\n'
p178
aS'Not Forgotten\n'
p179
aS'Make the Yuletide Gay\n'
p180
aS'Dogtooth\n'
p181
aS'Terminator Salvation\n'
p182
aS'Dance Flick\n'
p183
aS'Night at the Museum: Battle of the Smithsonian\n'
p184
aS'Easy Virtue\n'
p185
aS'The Girlfriend Experience\n'
p186
aS'Tormented\n'
p187
aS'Drag Me to Hell\n'
p188
aS'Up\n'
p189
aS'The Hangover\n'
p190
aS'Land of the Lost\n'
p191
aS'My Life in Ruins\n'
p192
aS'After Last Season\n'
p193
aS'Away We Go\n'
p194
aS'Doghouse\n'
p195
aS'The Taking of Pelham 123\n'
p196
aS'Food, Inc.\n'
p197
aS'Moon\n'
p198
aS'The Proposal\n'
p199
aS'Year One\n'
p200
aS'Dead Snow\n'
p201
aS'Whatever Works\n'
p202
aS'Transformers: Revenge of the Fallen\n'
p203
aS"My Sister's Keeper\n"
p204
aS'The Hurt Locker\n'
p205
aS'Princess Protection Program\n'
p206
aS'Surveillance\n'
p207
aS'Ice Age: Dawn of the Dinosaurs\n'
p208
aS'Public Enemies\n'
p209
aS'Br\xc3\xbcno\n'
p210
aS'Harry Potter and the Half-Blood Prince\n'
p211
aS'G-Force\n'
p212
aS'Orphan\n'
p213
aS'The Ugly Truth\n'
p214
aS'Aliens in the Attic\n'
p215
aS'The Collector\n'
p216
aS'Thirst\n'
p217
aS'G.I. Joe: The Rise of Cobra\n'
p218
aS'Julie & Julia\n'
p219
aS'A Perfect Getaway\n'
p220
aS'Cold Souls\n'
p221
aS'Paper Heart\n'
p222
aS'Bandslam\n'
p223
aS'District 9\n'
p224
aS"The Time Traveler's Wife\n"
p225
aS'Inglourious Basterds\n'
p226
aS'Post Grad\n'
p227
aS"World's Greatest Dad\n"
p228
aS'The Final Destination\n'
p229
aS'Halloween II\n'
p230
aS'Taking Woodstock\n'
p231
aS'Big Fan\n'
p232
aS'Mystery Team\n'
p233
aS'All About Steve\n'
p234
aS'Extract\n'
p235
aS'Gamer\n'
p236
aS'American Casino\n'
p237
aS'Carriers\n'
p238
aS'Batman: Lego Movie\n'
p239
aS'Sorority Row\n'
p240
aS'Whiteout\n'
p241
aS'No Impact Man\n'
p242
aS'White on Rice\n'
p243
aS'Mr. Nobody\n'
p244
aS'Another Cinderella Story\n'
p245
aS'The Other Woman\n'
p246
aS'Cloudy with a Chance of Meatballs\n'
p247
aS'The Informant!\n'
p248
aS'The Secrets of Jonathan Sperry\n'
p249
aS'Splice\n'
p250
aS'Fame\n'
p251
aS'Pandorum\n'
p252
aS'Surrogates\n'
p253
aS'Zombieland\n'
p254
aS'A Serious Man\n'
p255
aS'Law Abiding Citizen\n'
p256
aS'The Stepfather\n'
p257
aS'Black Dynamite\n'
p258
aS'Janky Promoters\n'
p259
aS'The Maid\n'
p260
aS'Astro Boy\n'
p261
aS'Saw VI\n'
p262
aS'Antichrist\n'
p263
aS'Motherhood\n'
p264
aS'(Untitled)\n'
p265
aS'The Marine 2\n'
p266
aS'Night of the Demons\n'
p267
aS'Halloweenight\n'
p268
aS'This Is It\n'
p269
aS'The Boondock Saints II: All Saints Day\n'
p270
aS'Gentlemen Broncos\n'
p271
aS'Skin\n'
p272
aS'The Box\n'
p273
aS'A Christmas Carol\n'
p274
aS'The Fourth Kind\n'
p275
aS'The Men Who Stare at Goats\n'
p276
aS'That Evening Sun\n'
p277
aS'Precious\n'
p278
aS'XXX: Return of Xander Cage\n'
p279
aS'The Boat That Rocked\xc2\xa0aka\xc2\xa0Pirate Radio\n'
p280
aS'The Messenger\n'
p281
aS'Uncertainty\n'
p282
aS'Lesbian Vampire Killers\n'
p283
aS'The Young Victoria\n'
p284
aS'Fantastic Mr. Fox\n'
p285
aS'The Blind Side\n'
p286
aS'The Twilight Saga: New Moon\n'
p287
aS'Planet 51\n'
p288
aS'Bad Lieutenant: Port of Call New Orleans\n'
p289
aS'Broken Embraces\n'
p290
aS'Nativity!\n'
p291
aS'Ninja Assassin\n'
p292
aS'Old Dogs\n'
p293
aS'The Road\n'
p294
aS'Armored\n'
p295
aS'Brothers\n'
p296
aS"Everybody's Fine\n"
p297
aS'A Single Man\n'
p298
aS'The Lovely Bones\n'
p299
aS'The Princess and the Frog\n'
p300
aS'Crazy Heart\n'
p301
aS'Avatar\n'
p302
aS'The Last Station\n'
p303
aS"It's Complicated\n"
p304
aS'Sherlock Holmes\n'
p305
aS'The White Ribbon\n'
p306
aS'The Loss of a Teardrop Diamond\n'
p307
aS'The Woman in Black\n'
p308
aS'20 Once Again\n'
p309
aS'Blackhat\n'
p310
aS'The World Made Straight\n'
p311
aS'Wild Card\n'
p312
aS'Darling\n'
p313
aS'Spare Parts\n'
p314
aS'The Wedding Ringer\n'
p315
aS'A Walk in the Woods\n'
p316
aS'Knock Knock\n'
p317
aS'Strange Magic\n'
p318
aS'The Boy Next Door\n'
p319
aS'The D Train\n'
p320
aS'The End of the Tour\n'
p321
aS'Mistress America\n'
p322
aS'Sleeping with Other People\n'
p323
aS'Slow West\n'
p324
aS'The Diary of a Teenage Girl\n'
p325
aS'The Hallow\n'
p326
aS'The Second Mother\n'
p327
aS'Advantageous\n'
p328
aS"I'll See You In My Dreams\n"
p329
aS'Jupiter Ascending\n'
p330
aS'I Kissed a Girl\n'
p331
aS'Alien Outpost\n'
p332
aS'Boonie Bears: Mystical Winter\n'
p333
aS'Running Man\n'
p334
aS'The Department\n'
p335
aS'Touring Talkies\n'
p336
aS'Old Fashioned\n'
p337
aS'Queen of Earth\n'
p338
aS'Goat\n'
p339
aS'Fifty Shades of Grey\n'
p340
aS'Life\n'
p341
aS'The Club\n'
p342
aS'Accidental Love\n'
p343
aS'Cinderella\n'
p344
aS'Jackpot\n'
p345
aS'Dragon Blade\n'
p346
aS'12 Golden Ducks\n'
p347
aS'Hot Tub Time Machine 2\n'
p348
aS'The Second Best Exotic Marigold Hotel\n'
p349
aS'Road Hard\n'
p350
aS'Unfinished Business\n'
p351
aS'Home\n'
p352
aS'Run All Night\n'
p353
aS'The Fencer\n'
p354
aS'Trainwreck\n'
p355
aS'Furious 7\n'
p356
aS'Woman in Gold\n'
p357
aS'Last Knights\n'
p358
aS'Beyond the Mask\n'
p359
aS'Dark Places\n'
p360
aS'Broken Horses\n'
p361
aS'The Longest Ride\n'
p362
aS'Avengers: Age of Ultron\n'
p363
aS'Monkey Kingdom\n'
p364
aS'Man Up\n'
p365
aS'Pitch Perfect 2\n'
p366
aS'The Water Diviner\n'
p367
aS'Little Boy\n'
p368
aS'The Falling\n'
p369
aS'Honey Night\n'
p370
aS'Mad Max: Fury Road\n'
p371
aS'Hot Pursuit\n'
p372
aS'The Wall\n'
p373
aS'Tomorrowland\n'
p374
aS'A Royal Night Out\n'
p375
aS'The High Sun\n'
p376
aS'Embrace of the Serpent\n'
p377
aS'The Lobster\n'
p378
aS'Arabian Nights\n'
p379
aS'Irrational Man\n'
p380
aS'The Brand New Testament\n'
p381
aS'Inside Out\n'
p382
aS'The Assassin\n'
p383
aS'The Human Centipede 3 (Final Sequence)\n'
p384
aS'You Carry Me\n'
p385
aS'San Andreas\n'
p386
aS'Jurassic World\n'
p387
aS'Survivor\n'
p388
aS'Insidious: Chapter 3\n'
p389
aS'The Sweet Escape\n'
p390
aS'Minions\n'
p391
aS'London Road\n'
p392
aS'The Messenger\n'
p393
aS'Under Milk Wood\n'
p394
aS'Everest\n'
p395
aS'Ant-Man\n'
p396
aS'Faith of Our Fathers\n'
p397
aS'Heavenly Nomadic\n'
p398
aS'Home Care\n'
p399
aS'Monster Hunt\n'
p400
aS'Wrong No.\n'
p401
aS'Bad Night\n'
p402
aS'Mission: Impossible \xe2\x80\x93 Rogue Nation\n'
p403
aS'Paper Towns\n'
p404
aS'The Vatican Tapes\n'
p405
aS'Vacation\n'
p406
aS'The Gift\n'
p407
aS'Fantastic Four\n'
p408
aS'The Man from U.N.C.L.E.\n'
p409
aS'Slumdog Millionaire\n'
p410
aS'The Clan\n'
p411
aS'Absolutely Anything\n'
p412
aS'No Escape\n'
p413
aS'Our Everyday Life\n'
p414
aS'American Ultra\n'
p415
aS'Hitman: Agent 47\n'
p416
aS'The Bad Education Movie\n'
p417
aS'We Are Your Friends\n'
p418
aS'A War\n'
p419
aS'The Wave\n'
p420
aS'War Room\n'
p421
aS'The Perfect Guy\n'
p422
aS'Beasts of No Nation\n'
p423
aS'Spotlight\n'
p424
aS'Black Mass\n'
p425
aS'Break Point\n'
p426
aS'Dragon Blade\n'
p427
aS'Steve Jobs: The Man in the Machine\n'
p428
aS'The Transporter Refueled\n'
p429
aS'Stranger\n'
p430
aS'The Visit\n'
p431
aS'11 Minutes\n'
p432
aS'90 Minutes in Heaven\n'
p433
aS'Born to Dance\n'
p434
aS'Eye in the Sky\n'
p435
aS'Pawn Sacrifice\n'
p436
aS'The Martian\n'
p437
aS'The Lady in the Van\n'
p438
aS'The Dressmaker\n'
p439
aS'The Program\n'
p440
aS'The Intern\n'
p441
aS'The Throne\n'
p442
aS'Captive\n'
p443
aS'Maze Runner: The Scorch Trials\n'
p444
aS'Stonewall\n'
p445
aS'Pan\n'
p446
aS'The Walk\n'
p447
aS'Hell and Back\n'
p448
aS'Bridge of Spies\n'
p449
aS'Goosebumps\n'
p450
aS'Burnt\n'
p451
aS'The Last Witch Hunter\n'
p452
aS'Spectre\n'
p453
aS'The Peanuts Movie\n'
p454
aS'The Hunger Games: Mockingjay \xe2\x80\x93 Part 2\n'
p455
aS'Secret in Their Eyes\n'
p456
aS'Creed\n'
p457
aS'The Letters\n'
p458
aS'Christmas Eve\n'
p459
aS'Youth\n'
p460
aS'A Royal Night Out\n'
p461
aS'In the Heart of the Sea\n'
p462
aS'The Big Short\n'
p463
aS'Star Wars: The Force Awakens\n'
p464
aS'Sisters\n'
p465
aS"Daddy's Home\n"
p466
aS'Joy\n'
p467
aS'Point Break\n'
p468
aS'The Hateful Eight\n'
p469
aS'The Revenant\n'
p470
aS'The Best Offer\n'
p471
aS'Open Grave\n'
p472
aS'Dumbbells\n'
p473
aS'Redirected\n'
p474
aS'The Legend of Hercules\n'
p475
aS'Raze\n'
p476
aS'The Nut Job\n'
p477
aS'Divin Enfant\n'
p478
aS'Jack Ryan: Shadow Recruit\n'
p479
aS'Lilting\n'
p480
aS'Whiplash\n'
p481
aS'Back in the Day\n'
p482
aS'Camp X-Ray\n'
p483
aS"Devil's Due\n"
p484
aS'Fishing Without Nets\n'
p485
aS'Frank\n'
p486
aS'Freezer\n'
p487
aS'Hellion\n'
p488
aS'Kidnapped for Christ\n'
p489
aS'Laggies\n'
p490
aS'Obvious Child\n'
p491
aS'Ride Along\n'
p492
aS'The Guest\n'
p493
aS'Big Bad Wolves\n'
p494
aS'Appropriate Behavior\n'
p495
aS'God Help the Girl\n'
p496
aS'Walk Among Tombstones\n'
p497
aS'I Origins\n'
p498
aS'Love Is Strange\n'
p499
aS'The Better Angels\n'
p500
aS'The Case Against 8\n'
p501
aS'Wish I Was Here\n'
p502
aS'Young Ones\n'
p503
aS'A Most Wanted Man\n'
p504
aS'Boyhood\n'
p505
aS'Calvary\n'
p506
aS'Dead Snow: Red vs. Dead\n'
p507
aS'Alice in Wonderland\n'
p508
aS'The Signal\n'
p509
aS'The Trip to Italy\n'
p510
aS'The One I Love\n'
p511
aS'The Raid 2\n'
p512
aS'The Monkey King\n'
p513
aS'Non-Stop\n'
p514
aS'That Awkward Moment\n'
p515
aS"Jacky in Women's Kingdom\n"
p516
aS'RoboCop\n'
p517
aS'Noble\n'
p518
aS'Best Night Ever\n'
p519
aS'The Lego Movie\n'
p520
aS'Barefoot\n'
p521
aS'A Few Cubic Meters of Love\n'
p522
aS'The Grand Budapest Hotel\n'
p523
aS'Mr. Peabody & Sherman\n'
p524
aS'The Monuments Men\n'
p525
aS'Two Men in Town\n'
p526
aS'Vampire Academy\n'
p527
aS'A Long Way Down\n'
p528
aS'The Dark Valley\n'
p529
aS'About Last Night\n'
p530
aS'The Two Faces of January\n'
p531
aS'3 Days to Kill\n'
p532
aS'Beauty and the Beast\n'
p533
aS'Cuban Fury\n'
p534
aS'Devil in the Detail\n'
p535
aS'Endless Love\n'
p536
aS'Gunday\n'
p537
aS'Pompeii\n'
p538
aS"Giovanni's Island\n"
p539
aS'Vengeance\n'
p540
aS'Supercondriaque\n'
p541
aS'Repentance\n'
p542
aS'Son of God\n'
p543
aS'300: Rise of an Empire\n'
p544
aS'Apaye\n'
p545
aS'Chef\n'
p546
aS'Neighbors\n'
p547
aS'Predestination\n'
p548
aS'Faults\n'
p549
aS'Vessel\n'
p550
aS'Before I Disappear\n'
p551
aS'Noah\n'
p552
aS'Muppets Most Wanted\n'
p553
aS'Fiston\n'
p554
aS'Need for Speed\n'
p555
aS'Captain America: The Winter Soldier\n'
p556
aS'The Single Moms Club\n'
p557
aS'Rob the Mob\n'
p558
aS'Divergent\n'
p559
aS'Sabotage\n'
p560
aS'Rio 2\n'
p561
aS"God's Not Dead\n"
p562
aS'Render to Caesar\n'
p563
aS'The Amazing Spider-Man 2\n'
p564
aS'The Other Woman\n'
p565
aS'Island of Lemurs: Madagascar\n'
p566
aS'Where Hope Grows\n'
p567
aS'Draft Day\n'
p568
aS'The Quiet Ones\n'
p569
aS'Transcendence\n'
p570
aS'Preservation\n'
p571
aS'2 States\n'
p572
aS'A Haunted House 2\n'
p573
aS'Bears\n'
p574
aS"Knocking on Heaven's Door\n"
p575
aS'Detective Conan: Dimensional Sniper\n'
p576
aS'Next Goal Wins\n'
p577
aS'Brick Mansions\n'
p578
aS'Walk of Shame\n'
p579
aS'Million Dollar Arm\n'
p580
aS'Godzilla\n'
p581
aS"Moms' Night Out\n"
p582
aS'X-Men: Days of Future Past\n'
p583
aS'Timbuktu\n'
p584
aS'How to Train Your Dragon 2\n'
p585
aS'The Fault in Our Stars\n'
p586
aS'The Salvation\n'
p587
aS'Wild Tales\n'
p588
aS'The Rover\n'
p589
aS'Foxcatcher\n'
p590
aS'Mischief Night\n'
p591
aS'The Search\n'
p592
aS'Blended\n'
p593
aS'Edge of Tomorrow\n'
p594
aS'Maleficent\n'
p595
aS'Make a Move\n'
p596
aS'A Million Ways to Die in the West\n'
p597
aS'Being Mrs Elliot\n'
p598
aS'22 Jump Street\n'
p599
aS'Transformers: Age of Extinction\n'
p600
aS'Think Like a Man Too\n'
p601
aS'Dawn of the Planet of the Apes\n'
p602
aS'The Breakup Guru\n'
p603
aS'Desert Dancer\n'
p604
aS'The Anomaly\n'
p605
aS'Planes: Fire & Rescue\n'
p606
aS'Persecuted\n'
p607
aS'Sex Tape\n'
p608
aS'The Purge: Anarchy\n'
p609
aS'When Marnie Was There\n'
p610
aS'Unfriended\n'
p611
aS'Guardians of the Galaxy\n'
p612
aS'Hercules\n'
p613
aS'Kick\n'
p614
aS'Lucy\n'
p615
aS'Magic in the Moonlight\n'
p616
aS'The Fluffy Movie\n'
p617
aS'Teenage Mutant Ninja Turtles\n'
p618
aS'Get on Up\n'
p619
aS'The Expendables 3\n'
p620
aS'When the Game Stands Tall\n'
p621
aS'The Inbetweeners 2\n'
p622
aS'Into the Storm\n'
p623
aS'Stand by Me Doraemon\n'
p624
aS'Step Up: All In\n'
p625
aS'The Hundred-Foot Journey\n'
p626
aS'The Giver\n'
p627
aS'Singham Returns\n'
p628
aS'Sin City: A Dame to Kill For\n'
p629
aS'Birdman\n'
p630
aS'The November Man\n'
p631
aS'Rosewater\n'
p632
aS'The Imitation Game\n'
p633
aS'Wild\n'
p634
aS'The Boxtrolls\n'
p635
aS'Before I Go to Sleep\n'
p636
aS'The Judge\n'
p637
aS'Mary Kom\n'
p638
aS'Nightcrawler\n'
p639
aS'The Equalizer\n'
p640
aS'The Good Lie\n'
p641
aS'The Theory of Everything\n'
p642
aS'Dolphin Tale 2\n'
p643
aS'Finding Fanny\n'
p644
aS'No Good Deed\n'
p645
aS'The Drop\n'
p646
aS'A Walk Among the Tombstones\n'
p647
aS'The Maze Runner\n'
p648
aS'Believe Me\n'
p649
aS'Gone Girl\n'
p650
aS'Addicted\n'
p651
aS'Dracula Untold\n'
p652
aS'Kill the Messenger\n'
p653
aS'The Book of Life\n'
p654
aS'John Wick\n'
p655
aS'Northmen: A Viking Saga\n'
p656
aS'Candlestick\n'
p657
aS'Fury\n'
p658
aS'The Best of Me\n'
p659
aS'American Heist\n'
p660
aS'Big Hero 6\n'
p661
aS'Happy New Year\n'
p662
aS'Ouija\n'
p663
aS'Interstellar\n'
p664
aS'A Most Violent Year\n'
p665
aS'Jessabelle\n'
p666
aS'The Gambler\n'
p667
aS'The Hunger Games: Mockingjay \xe2\x80\x93 Part 1\n'
p668
aS'American Sniper\n'
p669
aS'Dumb and Dumber To\n'
p670
aS"Nativity 3: Dude, Where's My Donkey?\n"
p671
aS'Penguins of Madagascar\n'
p672
aS'Saving Christmas\n'
p673
aS'Unbroken\n'
p674
aS'Horrible Bosses 2\n'
p675
aS'Paddington\n'
p676
aS'The Hobbit: The Battle of the Five Armies\n'
p677
aS'The Pyramid\n'
p678
aS'The Last: Naruto the Movie\n'
p679
aS'Annie\n'
p680
aS'Into the Woods\n'
p681
aS'Mythica: A Quest for Heroes\n'
p682
aS'Night at the Museum: Secret of the Tomb\n'
p683
aS'The Interview\n'
p684
aS'Exodus: Gods and Kings\n'
p685
aS'Kingsman: The Secret Service\n'
p686
aS'Taken 3\n'
p687
aS'Seventh Son\n'
p688
aS'PK\n'
p689
aS'Big Eyes\n'
p690
aS"Let's Kill Ward's Wife\n"
p691
aS'Selma\n'
p692
aS'The Water Diviner\n'
p693
aS'A Dark Truth\n'
p694
aS'Table No. 21\n'
p695
aS'Texas Chainsaw 3D\n'
p696
aS'Crawlspace\n'
p697
aS'The Grandmaster\n'
p698
aS'A Haunted House\n'
p699
aS'Gangster Squad\n'
p700
aS'Matru Ki Bijlee Ka Mandola\n'
p701
aS'Struck by Lightning\n'
p702
aS'The Baytown Outlaws\n'
p703
aS'Freeloaders\n'
p704
aS'Struck by Lightning\n'
p705
aS'Horrid Henry: The Movie\n'
p706
aS'Hansel & Gretel: Witch Hunters\n'
p707
aS'Broken City\n'
p708
aS'LUV\n'
p709
aS'Mama\n'
p710
aS'Officer Down\n'
p711
aS'The Last Stand\n'
p712
aS'John Dies at the End\n'
p713
aS'Knife Fight\n'
p714
aS'Movie 43\n'
p715
aS'Parker\n'
p716
aS'Race 2\n'
p717
aS'Television\n'
p718
aS'Happy People: A Year in the Taiga\n'
p719
aS'The Taste of Money\n'
p720
aS'Supporting Characters\n'
p721
aS'Yossi\n'
p722
aS'As Luck Would Have It\n'
p723
aS'Bullet to the Head\n'
p724
aS'Sound City\n'
p725
aS'Stand Up Guys\n'
p726
aS'The Haunting in Connecticut 2: Ghosts of Georgia\n'
p727
aS'Warm Bodies\n'
p728
aS'A Glimpse Inside the Mind of Charles Swan III\n'
p729
aS'I Give It a Year\n'
p730
aS'Identity Thief\n'
p731
aS'Side Effects\n'
p732
aS'Special 26\n'
p733
aS'Top Gun 3D\n'
p734
aS'Journey to the West: Conquering the Demons\n'
p735
aS'A Good Day to Die Hard\n'
p736
aS'Beautiful Creatures\n'
p737
aS'Murder 3\n'
p738
aS'Safe Haven\n'
p739
aS'Escape from Planet Earth\n'
p740
aS'Bless Me, Ultima\n'
p741
aS'Dark Skies\n'
p742
aS'Kai Po Che!\n'
p743
aS'Snitch\n'
p744
aS'To the Wonder\n'
p745
aS'21 & Over\n'
p746
aS'I, Me Aur Main\n'
p747
aS'Jack the Giant Slayer\n'
p748
aS'Phantom\n'
p749
aS'Stoker\n'
p750
aS'The Attacks of 26/11\n'
p751
aS'The Last Exorcism Part II\n'
p752
aS'Dead Man Down\n'
p753
aS'Emperor\n'
p754
aS"I'm So Excited\n"
p755
aS'Oz the Great and Powerful\n'
p756
aS'Goddess\n'
p757
aS'Spring Breakers\n'
p758
aS'The Call\n'
p759
aS'The Incredible Burt Wonderstone\n'
p760
aS'Welcome to the Punch\n'
p761
aS'Admission\n'
p762
aS'Inappropriate Comedy\n'
p763
aS'Love and Honor\n'
p764
aS'Olympus Has Fallen\n'
p765
aS'The Croods\n'
p766
aS'G.I. Joe: Retaliation\n'
p767
aS'Trance\n'
p768
aS'Himmatwala\n'
p769
aS'Temptation: Confessions of a Marriage Counselor\n'
p770
aS'The Host\n'
p771
aS'The Place Beyond the Pines\n'
p772
aS'Wrong\n'
p773
aS'Dragon Ball Z: Battle of Gods\n'
p774
aS'Baadshah\n'
p775
aS'Evil Dead\n'
p776
aS'Jurassic Park 3D\n'
p777
aS'Settai\n'
p778
aS'The Brass Teapot\n'
p779
aS'Upstream Color\n'
p780
aS'Fists of Legend\n'
p781
aS'Oblivion\n'
p782
aS'Scaface\n'
p783
aS'Disconnect\n'
p784
aS"It's a Disaster\n"
p785
aS'Scary Movie 5\n'
p786
aS'Java Heat\n'
p787
aS'Home Run\n'
p788
aS'The Lords of Salem\n'
p789
aS'At Any Price\n'
p790
aS'Iron Man 3\n'
p791
aS'Arthur Newman\n'
p792
aS'Mud\n'
p793
aS'Pain & Gain\n'
p794
aS'So Young\n'
p795
aS'The Big Wedding\n'
p796
aS'The Look of Love\n'
p797
aS'Bombay Talkies\n'
p798
aS'Greetings from Tim Buckley\n'
p799
aS'Kiss of the Damned\n'
p800
aS'Shootout at Wadala\n'
p801
aS'The Iceman\n'
p802
aS'What Maisie Knew\n'
p803
aS'Star Trek Into Darkness\n'
p804
aS'Aftershock\n'
p805
aS'Go Goa Gone\n'
p806
aS"He's Way More Famous Than You\n"
p807
aS'No One Lives\n'
p808
aS'The Great Gatsby\n'
p809
aS'Peeples\n'
p810
aS'Aurangzeb\n'
p811
aS'Black Rock\n'
p812
aS'Fast & Furious 6\n'
p813
aS'Frances Ha\n'
p814
aS'The English Teacher\n'
p815
aS'The Reluctant Fundamentalist\n'
p816
aS'The Hangover Part III\n'
p817
aS'Before Midnight\n'
p818
aS'Epic\n'
p819
aS'Only God Forgives\n'
p820
aS'After Earth\n'
p821
aS'Byzantium\n'
p822
aS'Now You See Me\n'
p823
aS'The East\n'
p824
aS'The Kings of Summer\n'
p825
aS'The Purge\n'
p826
aS'Yeh Jawaani Hai Deewani\n'
p827
aS'Hello Herman\n'
p828
aS'Much Ado About Nothing\n'
p829
aS'The Internship\n'
p830
aS'Tiger Eyes\n'
p831
aS'Violet & Daisy\n'
p832
aS'This Is the End\n'
p833
aS'Fukrey\n'
p834
aS'Man of Steel\n'
p835
aS'The Bling Ring\n'
p836
aS'My Little Pony: Equestria Girls\n'
p837
aS'Despicable Me 2\n'
p838
aS'Monsters University\n'
p839
aS'This Is Martin Bonner\n'
p840
aS'World War Z\n'
p841
aS'100 Bloody Acres\n'
p842
aS'Copperhead\n'
p843
aS'The Heat\n'
p844
aS'White House Down\n'
p845
aS'The Lone Ranger\n'
p846
aS'Hammer of the Gods\n'
p847
aS'Lootera\n'
p848
aS'Stuck in Love\n'
p849
aS'The Way, Way Back\n'
p850
aS'Bad Words\n'
p851
aS'Bhaag Milkha Bhaag\n'
p852
aS"Dealin' with Idiots\n"
p853
aS'Fruitvale Station\n'
p854
aS'Grown Ups 2\n'
p855
aS'Killing Season\n'
p856
aS'Pacific Rim\n'
p857
aS'V/H/S/2\n'
p858
aS'Pok\xc3\xa9mon the Movie: Genesect and the Legend Awakened\n'
p859
aS'Turbo\n'
p860
aS'D-Day\n'
p861
aS'Girl Most Likely\n'
p862
aS'RED 2\n'
p863
aS'R.I.P.D.\n'
p864
aS'The Conjuring\n'
p865
aS"The World's End\n"
p866
aS'The Wolverine\n'
p867
aS'Blue Jasmine\n'
p868
aS'Romeo and Juliet\n'
p869
aS'The To Do List\n'
p870
aS'The Smurfs 2\n'
p871
aS'2 Guns\n'
p872
aS'Europa Report\n'
p873
aS'The Canyons\n'
p874
aS'The Spectacular Now\n'
p875
aS'Percy Jackson: Sea of Monsters\n'
p876
aS"We're the Millers\n"
p877
aS'Attarintiki Daredi\n'
p878
aS'Chennai Express\n'
p879
aS'Elysium\n'
p880
aS'Planes\n'
p881
aS'Thalaivaa\n'
p882
aS'Kick-Ass 2\n'
p883
aS"Ain't Them Bodies Saints\n"
p884
aS'Jobs\n'
p885
aS'Paranoia\n'
p886
aS'The Butler\n'
p887
aS'The Mortal Instruments: City of Bones\n'
p888
aS'Drinking Buddies\n'
p889
aS'Scenic Route\n'
p890
aS'Short Term 12\n'
p891
aS"You're Next\n"
p892
aS'Closed Circuit\n'
p893
aS'One Direction: This Is Us\n'
p894
aS'Getaway\n'
p895
aS'The Lifeguard\n'
p896
aS'Hell Baby\n'
p897
aS'Riddick\n'
p898
aS'Shuddh Desi Romance\n'
p899
aS'Touchy Feely\n'
p900
aS'Winnie Mandela\n'
p901
aS'Insidious: Chapter 2\n'
p902
aS'The Family\n'
p903
aS'Battle of the Year\n'
p904
aS'Enough Said\n'
p905
aS'Prisoners\n'
p906
aS'Rush\n'
p907
aS'Sunshine on Leith\n'
p908
aS'The Wizard of Oz 3D\n'
p909
aS'Baggage Claim\n'
p910
aS'Cloudy with a Chance of Meatballs 2\n'
p911
aS'Don Jon\n'
p912
aS'Metallica Through the Never\n'
p913
aS'Ramayya Vasthavayya\n'
p914
aS'Runner Runner\n'
p915
aS'Gravity\n'
p916
aS'Grace Unplugged\n'
p917
aS'Escape Plan\n'
p918
aS'Captain Phillips\n'
p919
aS"The Devil's Rapture\n"
p920
aS'The Fifth Estate\n'
p921
aS'Machete Kills\n'
p922
aS'12 Years a Slave\n'
p923
aS'Carrie\n'
p924
aS"I'm in Love with a Church Girl\n"
p925
aS'Thor: The Dark World\n'
p926
aS'The Counselor\n'
p927
aS'Jackass Presents: Bad Grandpa\n'
p928
aS'Dallas Buyers Club\n'
p929
aS"Ender's Game\n"
p930
aS'Free Birds\n'
p931
aS'Last Vegas\n'
p932
aS'The Hunger Games: Catching Fire\n'
p933
aS'The Best Man Holiday\n'
p934
aS'The Book Thief\n'
p935
aS'Frozen\n'
p936
aS'Delivery Man\n'
p937
aS'Nebraska\n'
p938
aS'Anchorman 2: The Legend Continues\n'
p939
aS'Black Nativity\n'
p940
aS'Grace of Monaco\n'
p941
aS'Homefront\n'
p942
aS'Oldboy\n'
p943
aS'Mandela: Long Walk to Freedom\n'
p944
aS'The Hobbit: The Desolation of Smaug\n'
p945
aS'Inside Llewyn Davis\n'
p946
aS'Out of the Furnace\n'
p947
aS'A Madea Christmas\n'
p948
aS'American Hustle\n'
p949
aS'Saving Mr. Banks\n'
p950
aS'The Wolf of Wall Street\n'
p951
aS'Her\n'
p952
aS'Walking with Dinosaurs\n'
p953
aS'47 Ronin\n'
p954
aS'August: Osage County\n'
p955
aS'Grudge Match\n'
p956
aS'Jack Ryan: Shadow Recruit\n'
p957
aS'The Secret Life of Walter Mitty\n'
p958
aS'Lone Survivor\n'
p959
aaI0
aI0
aI0
a(lp960
NaNaNaNaNaNaNaNaNaNaNaNaNaNaNaNaNaNaNaNaNaNaNaNaNaNaNaNaNaNaNaNaNaNaNaNaNaNaNaNaNaNaNaNaNaNaNaNaNaNaNaNaNaNaNaNaNaNaNaNaNaNaNaNaNaNaNaNaNaNaNaNaNaNaNaNaNaNaNaNaNaNaNaNaNaNaNaNaNaNaNaNaNaNaNaNaNaNaNaNaNaNaNaNaNaNaNaNaNaNaNaNaNaNaNaNaNaNaNaNaNaNaNaNaNaNaNaNaNaNaNaNaNaNaNaNaNaNaNaNaNaNaNaNaNaNaNaNaNaNaNaNaNaNaNaNaNaNaNaNaNaNaNaNaNaNaNaNaNaNaNaNaNaNaNaNaNaNaNaNaNaNaNaNaNaNaNaNaNaNaNaNaNaNaNaNaNaNaNaNaNaNaNaNaNaNaNaNaNaNaNaNaNaNaNaNaNaNaNaNaNaNaNaNaNaNaNaNaNaNaNaNaNaNaNaNaNaNaNaNaNaNaNaNaNaNaNaNaNaNaNaNaNaNaNaNaNaNaNaNaNaNaNaNaNaNaNaNaNaNaNaNaNaNaNaNaNaNaNaNaNaNaNaNaNaNaNaNaNaNaNaNaNaNaNaNaNaNaNaNaNaNaNaNaNaNaNaNaNaNaNaNaNaNaNaNaNaNaNaNaNaNaNaNaNaNaNaNaNaNaNaNaNaNaNaNaNaNaNaNaNaNaNaNaNaNaNaNaNaNaNaNaNaNaNaNaNaNaNaNaNaNaNaNaNaNaNaNaNaNaNaNaNaNaNaNaNaNaNaNaNaNaNaNaNaNaNaNaNaNaNaNaNaNaNaNaNaNaNaNaNaNaNaNaNaNaNaNaNaNaNaNaNaNaNaNaNaNaNaNaNaNaNaNaNaNaNaNaNaNaNaNaNaNaNaNaNaNaNaNaNaNaNaNaNaNaNaNaNaNaNaNaNaNaNaNaNaNaNaNaNaNaNaNaNaNaNaNaNaNaNaNaNaNaNaNaNaNaNaNaNaNaNaNaNaNaNaNaNaNaNaNaNaNaNaNaNaNaNaNaNaNaNaNaNaNaNaNaNaNaNaNaNaNaNaNaNaNaNaNaNaNaNaNaNaNaNaNaNaNaNaNaNaNaNaNaNaNaNaNaNaNaNaNaNaNaNaNaNaNaNaNaNaNaNaNaNaNaNaNaNaNaNaNaNaNaNaNaNaNaNaNaNaNaNaNaNaNaNaNaNaNaNaNaNaNaNaNaNaNaNaNaNaNaNaNaNaNaNaNaNaNaNaNaNaNaNaNaNaNaNaNaNaNaNaNaNaNaNaNaNaNaNaNaNaNaNaNaNaNaNaNaNaNaNaNaNaNaNaNaNaNaNaNaNaNaNaNaNaNaNaNaNaNaNaNaNaNaNaNaNaNaNaNaNaNaNaNaNaNaNaNaNaNaNaNaNaNaNaNaNaNaNaNaNaNaNaNaNaNaNaNaNaNaNaNaNaNaNaNaNaNaNaNaNaNaNaNaNaNaNaNaNaNaNaNaNaNaNaNaNaNaNaNaNaNaNaNaNaNaNaNaNaNaNaNaNaNaNaNaNaNaNaNaNaNaNaNaNaNaNaNaNaNaNaNaNaNaNaNaNaNaNaNaNaNaNaNaNaNaNaNaNaNaNaNaNaNaNaNaNaNaNaNaNaNaNaNaNaNaNaNaNaNaNaNaNaNaNaNaNaNaNaNaNaNaNaNaNaNaNaNaNaNaNaNaNaNaNaNaNaNaNaNaNaNaNaNaNaNaNaNaNaNaNaNaNaNaNaNaNaNaNaNaNaNaNaNaNaNaNaNaNaNaNaNaNaNaNaNaNaNaNaNaNaNaNaNaNaNaNaNaNaNaNaNaNaNaNaNaNaNaNaNaNaNaNaNaNaNaNaNaNaNaNaNaNaNaNaNaNaNaNaNaNaNaNaNaNaNaNaNaNaNaNaNaNaNaNaNaNaNaNaNaNaNaNaNaNaNaNaNaNaNaNaNaNaNaNaNaNaNaNaNaNaNaNaNaNaNaNaNaNaNaNaNaNaNaa.