(lp0
(lp1
S'someone like you\n'
p2
aS'style\n'
p3
aS'new romantics\n'
p4
aS'poker face\n'
p5
aS'firework\n'
p6
aS'fireflies\n'
p7
aS'call me maybe\n'
p8
aS'shape of you\n'
p9
aS'hot n cold\n'
p10
aS'halo\n'
p11
aS'hung up\n'
p12
aS'earthquake\n'
p13
aS'obsessed\n'
p14
aS'work from home\n'
p15
aS'sorry\n'
p16
aS'sugar\n'
p17
aS'this love\n'
p18
aS'thinking out loud\n'
p19
aS"don't let me down\n"
p20
aS'closer\n'
p21
aS'burn\n'
p22
aS'fight song\n'
p23
aS'cheap thrills\n'
p24
aS'problem\n'
p25
aS'side to side\n'
p26
aS'we dont talk anymore\n'
p27
aS'a thousand years\n'
p28
aS'dessert\n'
p29
aS'love me like you do\n'
p30
aS'starving\n'
p31
aS'rock bottom\n'
p32
aS'beauty and a beat\n'
p33
aS'love yourself\n'
p34
aS'mistletoe\n'
p35
aS'sorry\n'
p36
aS'undiscovered\n'
p37
aS'all my love\n'
p38
aS'all about that bass\n'
p39
aS'best song ever\n'
p40
aS'happy\n'
p41
aS'night changes\n'
p42
aS'perfect\n'
p43
aS'stand by you\n'
p44
aS'dancing in the dark\n'
p45
aS'work \n'
p46
aS'safe and sound\n'
p47
aS'shine your way\n'
p48
aS'treat you better\n'
p49
aS'chandelier\n'
p50
aS'blank space\n'
p51
aS'shake it off\n'
p52
aS'bad blood\n'
p53
aS'everyday\n'
p54
aS'one last night\n'
p55
aS'i dont wanna live forever\n'
p56
aS'cold\n'
p57
aS'paris\n'
p58
aS'strings\n'
p59
aS'stitches\n'
p60
aS'crazy\n'
p61
aS'green light\n'
p62
aS'tunnel vision\n'
p63
aS'bad things\n'
p64
aS'rolex\n'
p65
aS'hurricane\n'
p66
aS'castle on the hill\n'
p67
aS'heavy\n'
p68
aS'thumbs\n'
p69
aS'see you again\n'
p70
aS'drag me down\n'
p71
aS'counting stars\n'
p72
aS'bad blood\n'
p73
aS'alone\n'
p74
aS'same old love\n'
p75
aS'cold water\n'
p76
aS'history\n'
p77
aS'fireworks\n'
p78
aS'hello\n'
p79
aS'pillowtalk\n'
p80
aS'slide\n'
p81
aS'hometown girl\n'
p82
aS'darlin\n'
p83
aS'waka waka\n'
p84
aS'evergreen\n'
p85
aS'price tag\n'
p86
aS'bleeding love\n'
p87
aS'tik tok\n'
p88
aS'girlfriend\n'
p89
aS'blah blah blah\n'
p90
aS'i kissed a girl\n'
p91
aS'party in the usa\n'
p92
aS'toxic\n'
p93
aS'barbie girl\n'
p94
aS'give me everything\n'
p95
aS'bad romance\n'
p96
aS'hero\n'
p97
aS'just dance\n'
p98
aS'titanium\n'
p99
aS'airplanes\n'
p100
aS'omg\n'
p101
aS'lego house\n'
p102
aS'human\n'
p103
aS'Friday\n'
p104
aS'patience\n'
p105
aS'teenage dirtbag\n'
p106
aS'bounce\n'
p107
aS'only girl\n'
p108
aS'we fond love\n'
p109
aS'diamonds\n'
p110
aS'on the floor\n'
p111
aS'grenade\n'
p112
aS'single ladies\n'
p113
aS'let me love you\n'
p114
aS'cheap thrills\n'
p115
aS'starboy\n'
p116
aS'waiting for love\n'
p117
aS'hey! Brother\n'
p118
aS'21 guns\n'
p119
aS'lose yourself\n'
p120
aS'animals\n'
p121
aS'love the way you lie\n'
p122
aS'hymn for the weekend\n'
p123
aS'paradise\n'
p124
aS'demons\n'
p125
aS'radioaktiv\n'
p126
aS'the lego house\n'
p127
aS"I don't wanna live for ever\n"
p128
aS'mirrors\n'
p129
aS'numb\n'
p130
aS'wrecking balls\n'
p131
aS'to the church\n'
p132
aS'something just like this\n'
p133
aS'superheroes\n'
p134
aS"don't you worry child\n"
p135
aS'dance of death\n'
p136
aS'black and yellow\n'
p137
aS'beat it\n'
p138
aS'roar\n'
p139
aS'all of me\n'
p140
aS'superman\n'
p141
aS'the hills\n'
p142
aS'hall of fame\n'
p143
aS'till I collapse\n'
p144
aS'sorry\n'
p145
aS'purpose\n'
p146
aS'stairway to heaven\n'
p147
aS'he is a pirate\n'
p148
aS'in the name of love\n'
p149
aS'all we know\n'
p150
aS'faded\n'
p151
aS'thrift shop\n'
p152
aS'smooth criminal\n'
p153
aS'chained to the rhythm\n'
p154
aS'yellow\n'
p155
aS'the scientist\n'
p156
aS'remember the name\n'
p157
aaI0
aI0
aI0
a(lp158
NaNaNaNaNaNaNaNaNaNaNaNaNaNaNaNaNaNaNaNaNaNaNaNaNaNaNaNaNaNaNaNaNaNaNaNaNaNaNaNaNaNaNaNaNaNaNaNaNaNaNaNaNaNaNaNaNaNaNaNaNaNaNaNaNaNaNaNaNaNaNaNaNaNaNaNaNaNaNaNaNaNaNaNaNaNaNaNaNaNaNaNaNaNaNaNaNaNaNaNaNaNaNaNaNaNaNaNaNaNaNaNaNaNaNaNaNaNaNaNaNaNaNaNaNaNaNaNaNaNaNaNaNaNaNaNaNaNaNaNaNaNaNaNaNaNaNaNaNaNaNaNaNaNaNaNaa.