(lp0
(lp1
S'Silicon Valley\n'
p2
aS'Suits\n'
p3
aS'House of cards\n'
p4
aS'Breaking Bad\n'
p5
aS'Peaky Blindness\n'
p6
aS'Stranger Things\n'
p7
aS'Person of Interest\n'
p8
aS'Game of Thrones\n'
p9
aS'Legends of Tomorrow\n'
p10
aS'Arrow\n'
p11
aS'The Flash\n'
p12
aS'Orange is the new Black\n'
p13
aS'Prison Break\n'
p14
aS'Luther\n'
p15
aS'Sherlock\n'
p16
aS'Quantico\n'
p17
aS'Friends\n'
p18
aS'How I met your mother\n'
p19
aS'Big Bang Theory\n'
p20
aS'Desperate Housewives\n'
p21
aS'Black Mirror\n'
p22
aS'Westworld\n'
p23
aS'Criminal Minds\n'
p24
aS'The Originals\n'
p25
aS'Seinfield\n'
p26
aS'Band of Brothers\n'
p27
aS'Two and a half Men\n'
p28
aS'Impractical Jokers\n'
p29
aS'Legion\n'
p30
aS'Narcos\n'
p31
aS'Dexter'
p32
aaI0
aI0
aI0
a(lp33
NaNaNaNaNaNaNaNaNaNaNaNaNaNaNaNaNaNaNaNaNaNaNaNaNaNaNaNaNaNaNaa.