(lp0
(lp1
NaNaNaNaNaNaNaNaNaNaNaNaNaNaNaNaNaNaNaNaNaNaNaNaNaNaNaNaNaNaNaNaNaNaNaNaNaNaNaNaNaNaNaNaNaNaNaNaNaNaNaNaNaNaNaNaNaNaNaNaNaNaNaNaNaNaNaNaNaNaNaNaNaNaNaNaNaNaNaNaNaNaNaNaNaNaNaNaNaNaNaNaNaNaNaNaNaNaNaNaNaNaNaNaNaNaNaNaNaNaNaNaNaNaNaNaNaNaNaNaNaNaNaNaNaNaNaNaNaNaNaNaNaNaNaNaNaNaNaNaNaNaNaNaNaNaNaNaNaNaNaNaNaNaNaNaNaNaNaNaNaNaNaNaNaNaNaNaNaNaNaNaNaNaNaNaNaNaNaNaNaNaNaNaNaNaNaNaNaNaNaNaNaNaNaNaNaNaNaNaNaNaNaNaNaNaNaNaNaNaNaNaNaNaNaNaNaNaNaNaNaNaNaNaNaNaNaNaNaNaNaNaNaNaNaNaNaNaNaNaNaNaNaNaNaNaNaNaNaNaNaNaNaNaNaNaNaNaNaNaNaNaNaNaNaNaNaNaNaNaNaNaNaNaNaNaNaNaNaNaNaNaNaNaNaNaNaNaNaNaNaNaNaNaNaNaNaNaNaNaNaNaNaNaNaNaNaNaNaNaNaNaNaNaNaNaNaNaNaNaNaNaNaNaNaNaNaNaNaNaNaNaNaNaNaNaNaNaNaNaNaNaNaNaNaNaNaNaNaNaNaNaNaNaNaNaNaNaNaNaNaNaNaNaNaNaNaNaNaNaNaNaNaNaNaNaNaNaNaNaNaNaNaNaNaNaNaNaNaNaNaNaNaNaNaNaNaNaNaNaNaNaNaNaNaNaNaNaNaNaNaNaNaNaNaNaNaNaNaNaNaNaNaNaNaNaNaNaNaNaNaNaNaNaNaNaNaNaNaNaNaNaNaNaNaNaNaNaNaNaNaNaNaNaNaNaNaNaNaNaNaNaNaNaNaNaNaNaNaNaNaNaNaNaNaNaNaNaNaNaNaNaNaNaNaNaNaNaNaNaNaNaNaNaNaNaNaNaNaNaNaNaNaNaNaNaNaNaNaNaNaNaNaNaNaNaNaNaNaNaNaNaNaNaNaNaNaNaNaNaNaNaNaNaNaNaNaNaNaNaNaNaNaNaNaNaNaNaNaNaNaNaNaNaNaNaNaNaNaNaNaNaNaNaNaNaNaNaNaNaNaNaNaNaNaNaNaNaNaNaNaNaNaNaNaNaNaNaNaNaNaNaNaNaNaNaNaNaNaNaNaNaNaNaNaNaNaNaNaNaNaNaNaNaNaNaNaNaNaNaNaNaNaNaNaNaNaNaNaNaNaNaNaNaNaNaNaNaNaNaNaNaNaNaNaNaNaNaNaNaNaNaNaNaNaNaNaNaNaNaNaNaNaNaNaNaNaNaNaNaNaNaNaNaNaNaNaNaNaNaNaNaNaNaNaNaNaNaNaNaNaNaNaNaNaNaNaNaNaNaNaNaNaNaNaNaNaNaNaNaNaNaNaNaNaNaNaNaNaNaNaNaNaNaNaNaNaNaNaNaNaNaNaNaNaNaNaNaNaNaNaNaNaNaNaNaNaNaNaNaNaNaNaNaNaNaNaNaNaNaNaNaNaNaNaNaNaNaNaNaNaNaNaNaNaNaNaNaNaNaNaNaNaNaNaNaNaNaNaNaNaNaNaNaNaNaNaNaNaNaNaNaNaNaNaNaNaNaNaNaNaNaNaNaNaNaNaNaNaNaNaNaNaNaNaNaNaNaNaNaNaNaNaNaNaNaNaNaNaNaNaNaNaNaNaNaNaNaNaNaNaNaNaNaNaNaNaNaNaNaNaNaNaNaNaNaNaNaNaNaNaNaNaNaNaNaNaNaNaNaNaNaNaNaNaNaNaNaNaNaNaNaNaNaNaNaNaNaNaNaNaNaNaNaNaNaNaNaNaNaNaNaNaNaNaNaNaNaNaNaNaNaNaNaNaNaNaNaNaNaNaNaNaNaNaNaNaNaNaNaNaNaNaNaNaNaNaNaNaNaNaNaNaNaNaNaNaNaNaNaNaNaNaNaNaNaNaNaNaNaNaNaNaNaNaNaNaNaNaNaNaNaNaNaNaNaNaNaNaNaNaNaNaNaNaNaNaNaNaNaNaNaNaNaNaNaNaNaNaNaNaNaNaNaNaNaNaNaNaNaNaNaNaNaNaNaNaNaNaNaNaNaNaNaNaNaNaNaNaNaNaNaNaNaNaNaNaNaNaNaNaNaNaNaNaNaNaNaNaNaNaNaNaNaNaNaNaNaNaNaNaNaNaNaNaNaNaNaNaNaNaNaNaNaNaNaNaNaNaNaNaNaNaNaNaNaNaNaNaNaNaNaNaNaNaNaNaNaNaNaNaNaNaNaNaNaNaNaNaNaNaNaNaNaNaNaNaNaNaNaNaNaNaNaNaNaNaNaNaNaNaNaNaNaNaNaNaNaNaNaNaNaNaNaNaNaNaNaNaNaNaNaNaNaNaNaNaNaNaNaNaNaNaNaNaNaNaNaNaNaNaNaNaNaNaNaNaNaNaNaNaNaNaNaNaNaNaNaNaNaNaNaNaNaNaNaNaNaNaNaNaNaNaNaNaNaNaNaNaNaNaNaNaNaNaNaNaNaNaNaNaNaNaNaNaNaNaNaNaNaNaNaNaNaNaNaNaNaNaNaNaNaNaNaNaNaNaNaNaNaNaNaNaNaNaNaNaNaNaNaNaNaNaNaNaNaNaNaNaNaNaNaNaNaNaNaNaNaNaNaNaNaNaNaNaNaNaNaNaNaNaNaNaNaNaNaNaNaNaNaNaNaNaNaNaNaNaNaNaNaNaNaNaNaNaNaNaNaNaNaNaNaNaNaNaNaNaNaNaNaNaNaNaNaNaNaNaNaNaNaNaNaNaNaNaNaNaNaNaNaNaNaNaNaNaNaNaNaNaNaNaNaNaNaNaNaNaNaNaNaNaNaNaNaNaNaNaNaNaNaNaNaNaNaNaNaNaNaNaNaNaNaNaNaNaNaNaNaNaNaNaNaNaNaNaNaNaNaNaNaS'Time Rush'
p2
aS'Mercury Plains'
p3
aS'Robo-Dog'
p4
aS'The Forest'
p5
aS'The Masked Saint'
p6
aS'Diablo'
p7
aS'13 Hours: The Secret Soldiers of Benghazi'
p8
aS'Norm of the North'
p9
aS'Ride Along 2'
p10
aS'Boonie Bears III'
p11
aS'The 5th Wave'
p12
aS'The Boy'
p13
aS'Dirty Grandpa'
p14
aS'Monster Hunt'
p15
aS'Kung Fu Panda 3'
p16
aS'Tallulah'
p17
aS'Mr. Pig'
p18
aS'Lazer Team'
p19
aS'The Witch'
p20
aS'Fifty Shades of Black'
p21
aS'The Finest Hours'
p22
aS'Jane Got a Gun'
p23
aS'The Choice'
p24
aS"Dad's Army"
p25
aS'Hail, Caesar!'
p26
aS'Misconduct'
p27
aS'The Monkey King 2'
p28
aS'Pride and Prejudice and Zombies'
p29
aS'The Mermaid'
p30
aS'Deadpool'
p31
aS'Zootopia'
p32
aS'How to Be Single'
p33
aS'Zoolander 2'
p34
aS'Midnight Special'
p35
aS'Triple 9'
p36
aS'Race'
p37
aS'Risen'
p38
aS'Grimsby'
p39
aS'Gods of Egypt'
p40
aS'Eddie the Eagle'
p41
aS'Standoff'
p42
aS'Knight of Cups'
p43
aS'London Has Fallen'
p44
aS'The Other Side of the Door'
p45
aS'Whiskey Tango Foxtrot'
p46
aS'10 Cloverfield Lane'
p47
aS'Everybody Wants Some!!'
p48
aS'The Perfect Match'
p49
aS'The Young Messiah'
p50
aS'Miracles from Heaven'
p51
aS'The Bronze'
p52
aS'The Divergent Series: Allegiant'
p53
aS'Batman v Superman: Dawn of Justice'
p54
aS'My Big Fat Greek Wedding 2'
p55
aS"They're Watching"
p56
aS"God's Not Dead 2"
p57
aS'Meet the Blacks'
p58
aS'Countdown'
p59
aS'The Boss'
p60
aS'Demolition'
p61
aS'Hardcore Henry'
p62
aS'Hush'
p63
aS'Captain America: Civil War'
p64
aS"Mother's Day"
p65
aS'Barbershop: The Next Cut'
p66
aS'Criminal'
p67
aS'Green Room'
p68
aS'The Jungle Book'
p69
aS'Elvis & Nixon'
p70
aS"The Huntsman: Winter's War"
p71
aS'Florence Foster Jenkins'
p72
aS'Keanu'
p73
aS'Ratchet & Clank'
p74
aS'Sniper: Special Ops'
p75
aS'The Angry Birds Movie'
p76
aS'X-Men: Apocalypse'
p77
aS'Alice Through the Looking Glass'
p78
aS'Caf\xc3\xa9 Society'
p79
aS'The Darkness'
p80
aS'Last Days in the Desert'
p81
aS'Money Monster'
p82
aS'The Nice Guys'
p83
aS"Maggie's Plan"
p84
aS'Neighbors 2: Sorority Rising'
p85
aS'The Neon Demon'
p86
aS'Teenage Mutant Ninja Turtles: Out of the Shadows'
p87
aS'Me Before You'
p88
aS'Popstar: Never Stop Never Stopping'
p89
aS'Now You See Me 2'
p90
aS'The Conjuring 2'
p91
aS'Central Intelligence'
p92
aS'Genius'
p93
aS'Warcraft'
p94
aS'Free State of Jones'
p95
aS'Finding Dory'
p96
aS'Independence Day: Resurgence'
p97
aS'The Shallows'
p98
aS'The Legend of Tarzan'
p99
aS'The BFG'
p100
aS'The Purge: Election Year'
p101
aS'Our Kind of Traitor'
p102
aS'Carnage Park'
p103
aS'The Secret Life of Pets'
p104
aS'Mike and Dave Need Wedding Dates'
p105
aS'Captain Fantastic'
p106
aS'Zero Days'
p107
aS'Our Little Sister'
p108
aS'The Infiltrator'
p109
aS'Ghostbusters'
p110
aS'Caf\xc3\xa9 Society'
p111
aS"Hillary's America: The Secret History of the Democratic Party"
p112
aS'Ice Age: Collision Course'
p113
aS'Star Trek Beyond'
p114
aS'Lights Out'
p115
aS'Absolutely Fabulous: The Movie'
p116
aS"Don't Think Twice"
p117
aS'Batman: The Killing Joke'
p118
aS'Nerve'
p119
aS'Jason Bourne'
p120
aS'Bad Moms'
p121
aS'Into the Forest'
p122
aS'Equity'
p123
aS'Indignation'
p124
aS'Gleason'
p125
aS'Suicide Squad'
p126
aS'Nine Lives'
p127
aS'Bobby Sands: 66 Days'
p128
aS'Misfortune'
p129
aS"Pete's Dragon"
p130
aS'Sausage Party'
p131
aS'Hell or High Water'
p132
aS'When Elephants Were Young'
p133
aS'Disorder'
p134
aS'Anthropoid'
p135
aS'Little Men'
p136
aS'Kubo and the Two Strings'
p137
aS'War Dogs'
p138
aS'Ben-Hur'
p139
aS'The People vs. Fritz Bauer'
p140
aS'Imperium'
p141
aS'Morris from America'
p142
aS'Lo and Behold, Reveries of the Connected World'
p143
aS"Don't Breathe"
p144
aS'Mechanic: Resurrection'
p145
aS'Hands of Stone'
p146
aS'Mia Madre'
p147
aS'The Light Between Oceans'
p148
aS'Morgan'
p149
aS'Yoga Hosers'
p150
aS'Skiptrace'
p151
aS'The 9th Life of Louis Drax'
p152
aS'Rampage: President Down'
p153
aS'Sully'
p154
aS'When the Bough Breaks'
p155
aS'The Disappointments Room'
p156
aS"Bridget Jones's Baby"
p157
aS'Blair Witch'
p158
aS'Snowden'
p159
aS'Hillsong: Let Hope Rise'
p160
aS'Cardboard Boxer'
p161
aS'The Magnificent Seven'
p162
aS'Storks'
p163
aS'Queen of Katwe'
p164
aS'Deepwater Horizon'
p165
aS"Miss Peregrine's Home for Peculiar Children"
p166
aS'Masterminds'
p167
aS'The Girl on the Train'
p168
aS'The Birth of a Nation'
p169
aS'Middle School: The Worst Years of My Life'
p170
aS'Voyage of Time'
p171
aS'The Accountant'
p172
aS'Little Sister'
p173
aS'Kevin Hart: What Now?'
p174
aS'Max Steel'
p175
aS'The River Thief'
p176
aS'Jack Reacher: Never Go Back'
p177
aS'Boo! A Madea Halloween'
p178
aS'Keeping Up with the Joneses'
p179
aS'Ouija: Origin of Evil'
p180
aS"I'm Not Ashamed"
p181
aS'Moonlight'
p182
aS'American Pastoral'
p183
aS'Inferno'
p184
aS'Doctor Strange'
p185
aS'Trolls'
p186
aS'Hacksaw Ridge'
p187
aS'Loving'
p188
aS'Arrival'
p189
aS'The Monster'
p190
aS"Billy Lynn's Long Halftime Walk"
p191
aS'Almost Christmas'
p192
aS'Shut In'
p193
aS'USS Indianapolis: Men of Courage'
p194
aS'Fantastic Beasts and Where to Find Them'
p195
aS'The Edge of Seventeen'
p196
aS'Bleed for This'
p197
aS'Manchester by the Sea'
p198
aS'Nocturnal Animals'
p199
aS'A Street Cat Named Bob'
p200
aS'Moana'
p201
aS'Allied'
p202
aS'Bad Santa 2'
p203
aS"Rules Don't Apply"
p204
aS'Miss Sloane'
p205
aS'Lion'
p206
aS'Incarnate'
p207
aS'Sing'
p208
aS'Believe'
p209
aS'The Comedian'
p210
aS'Jackie'
p211
aS'Man Down'
p212
aS'Nerdland'
p213
aS'The Bounce Back'
p214
aS'La La Land'
p215
aS'Office Christmas Party'
p216
aS'Frank and Lola'
p217
aS'Rogue One'
p218
aS'Collateral Beauty'
p219
aS'Fences'
p220
aS'The Founder'
p221
aS"Assassin's Creed"
p222
aS'Passengers'
p223
aS'Patriots Day'
p224
aS'Why Him?'
p225
aS'A Monster Calls'
p226
aS'Silence'
p227
aS'Gold'
p228
aS'Hidden Figures'
p229
aS'Live by Night'
p230
aS'Paterson'
p231
aS'20th Century Women'
p232
aS'Cargo 200'
p233
aS'Let Them Chirp Awhile'
p234
aS'Bride Wars'
p235
aS'Not Easily Broken'
p236
aS'The Unborn'
p237
aS'Hotel for Dogs'
p238
aS'My Bloody Valentine 3D'
p239
aS'Notorious'
p240
aS'Paul Blart: Mall Cop'
p241
aS'Chandni Chowk to China'
p242
aS'Cherry Blossoms'
p243
aS'Inkheart'
p244
aS'Underworld: Rise of the Lycans'
p245
aS'The Dark Knight'
p246
aS'Donkey Punch'
p247
aS'Ink'
p248
aS'Killshot'
p249
aS'Possession'
p250
aS'Outlander'
p251
aS'New in Town'
p252
aS'Taken'
p253
aS'The Uninvited'
p254
aS'The Class'
p255
aS'Luck by Chance'
p256
aS'Coraline'
p257
aS"He's Just Not That into You"
p258
aS'The Pink Panther 2'
p259
aS'Push'
p260
aS'Fanboys'
p261
aS'Confessions of a Shopaholic'
p262
aS'Friday the 13th'
p263
aS'The International'
p264
aS'The Secret of Moonacre'
p265
aS'Two Lovers'
p266
aS'Billu'
p267
aS'Fired Up'
p268
aS'Madea Goes to Jail'
p269
aS'Anvil! The Story of Anvil'
p270
aS'The Girl with the Dragon Tattoo'
p271
aS'Jonas Brothers: The 3D Concert Experience'
p272
aS'Street Fighter: The Legend of Chun-Li'
p273
aS'Crossing Over'
p274
aS'Echelon Conspiracy'
p275
aS'Watchmen'
p276
aS'Horsemen'
p277
aS'Phoebe in Wonderland'
p278
aS"Sherman's Way"
p279
aS'Tokyo!'
p280
aS'The Last House on the Left'
p281
aS'Miss March'
p282
aS'Race to Witch Mountain'
p283
aS'Brothers at War'
p284
aS'The Cake Eaters'
p285
aS'Sunshine Cleaning'
p286
aS'Duplicity'
p287
aS'I Love You, Man'
p288
aS'Knowing'
p289
aS'The Great Buck Howard'
p290
aS'Sin Nombre'
p291
aS'12 Rounds'
p292
aS'The Haunting in Connecticut'
p293
aS'Monsters vs. Aliens'
p294
aS'The Education of Charlie Banks'
p295
aS'The Cross'
p296
aS'Adventureland'
p297
aS'Fast & Furious'
p298
aS'Bart Got a Room'
p299
aS'C Me Dance'
p300
aS'Lymelife'
p301
aS'Dragonball Evolution'
p302
aS'Hannah Montana: The Movie'
p303
aS'Observe and Report'
p304
aS'17 Again'
p305
aS'Crank: High Voltage'
p306
aS'State of Play'
p307
aS'American Violet'
p308
aS'Every Little Step'
p309
aS'Earth'
p310
aS'Frequently Asked Questions About Time Travel'
p311
aS'Fighting'
p312
aS'Obsessed'
p313
aS'The Soloist'
p314
aS'The Informers'
p315
aS'Battle for Terra'
p316
aS'Ghosts of Girlfriends Past'
p317
aS'X-Men Origins: Wolverine'
p318
aS'The Limits of Control'
p319
aS'The Merry Gentleman'
p320
aS'Next Day Air'
p321
aS'Star Trek'
p322
aS'Julia'
p323
aS'Little Ashes'
p324
aS'Powder Blue'
p325
aS'Rudo y Cursi'
p326
aS'Angels & Demons'
p327
aS'The Brothers Bloom'
p328
aS'Management'
p329
aS'Not Forgotten'
p330
aS'Make the Yuletide Gay'
p331
aS'Dogtooth'
p332
aS'Terminator Salvation'
p333
aS'Dance Flick'
p334
aS'Night at the Museum: Battle of the Smithsonian'
p335
aS'Easy Virtue'
p336
aS'The Girlfriend Experience'
p337
aS'Tormented'
p338
aS'Drag Me to Hell'
p339
aS'Up'
p340
aS'What Goes Up'
p341
aS'The Maiden Heist'
p342
aS'The Hangover'
p343
aS'Land of the Lost'
p344
aS'My Life in Ruins'
p345
aS'After Last Season'
p346
aS'Away We Go'
p347
aS'Doghouse'
p348
aS'Imagine That'
p349
aS'The Taking of Pelham 123'
p350
aS'Food, Inc.'
p351
aS'Moon'
p352
aS'The Proposal'
p353
aS'Year One'
p354
aS'Dead Snow'
p355
aS'Whatever Works'
p356
aS'Transformers: Revenge of the Fallen'
p357
aS"My Sister's Keeper"
p358
aS'Ch\xc3\xa9ri'
p359
aS'The Hurt Locker'
p360
aS'Princess Protection Program'
p361
aS'The Stoning of Soraya M.'
p362
aS'Surveillance'
p363
aS'Ice Age: Dawn of the Dinosaurs'
p364
aS'Public Enemies'
p365
aS"I Hate Valentine's Day"
p366
aS'Br\xc3\xbcno'
p367
aS'I Love You, Beth Cooper'
p368
aS'Blood: The Last Vampire'
p369
aS'Humpday'
p370
aS'Harry Potter and the Half-Blood Prince'
p371
aS'Homecoming'
p372
aS'(500) Days of Summer'
p373
aS'G-Force'
p374
aS'Orphan'
p375
aS'Los Bandoleros'
p376
aS'The Ugly Truth'
p377
aS'The Answer Man'
p378
aS'In the Loop'
p379
aS'Shrink'
p380
aS'Adam'
p381
aS'Aliens in the Attic'
p382
aS'The Collector'
p383
aS'Funny People'
p384
aS'The Cove'
p385
aS'Thirst'
p386
aS'G.I. Joe: The Rise of Cobra'
p387
aS'Julie & Julia'
p388
aS'A Perfect Getaway'
p389
aS'Cold Souls'
p390
aS'Paper Heart'
p391
aS'Bandslam'
p392
aS'District 9'
p393
aS'The Goods: Live Hard, Sell Hard'
p394
aS'Ponyo'
p395
aS"The Time Traveler's Wife"
p396
aS'Earth Days'
p397
aS'Grace'
p398
aS'I Sell the Dead'
p399
aS'It Might Get Loud'
p400
aS'Spread'
p401
aS'Inglourious Basterds'
p402
aS'Post Grad'
p403
aS'Shorts:_The_Adventures_of_the_Wishing_Rock'
p404
aS'X Games: The Movie'
p405
aS'Casi Divas'
p406
aS'Art & Copy'
p407
aS'Five Minutes of Heaven'
p408
aS'My One and Only'
p409
aS"World's Greatest Dad"
p410
aS'The Final Destination'
p411
aS'Halloween II'
p412
aS'Taking Woodstock'
p413
aS'Big Fan'
p414
aS'Mystery Team'
p415
aS'All About Steve'
p416
aS'Extract'
p417
aS'Gamer'
p418
aS'American Casino'
p419
aS'Amreeka'
p420
aS'Carriers'
p421
aS'Batman: Lego Movie'
p422
aS'I Can Do Bad All By Myself'
p423
aS'Sorority Row'
p424
aS'Whiteout'
p425
aS'Crude'
p426
aS'Beyond A Reasonable Doubt'
p427
aS'No Impact Man'
p428
aS'White on Rice'
p429
aS'Mr. Nobody'
p430
aS'35 Shots of Rum'
p431
aS'Another Cinderella Story'
p432
aS'The Other Woman'
p433
aS'Cloudy with a Chance of Meatballs'
p434
aS'The Informant!'
p435
aS"Jennifer's Body"
p436
aS'Love Happens'
p437
aS'Bright Star'
p438
aS'The Secrets of Jonathan Sperry'
p439
aS'Splice'
p440
aS'Fame'
p441
aS'Pandorum'
p442
aS'Surrogates'
p443
aS'Trailer Park Boys: Countdown to Liquor Day'
p444
aS'Brief Interviews with Hideous Men'
p445
aS'Coco Before Chanel'
p446
aS'I Hope They Serve Beer in Hell'
p447
aS'Capitalism: A Love Story'
p448
aS'The Invention of Lying'
p449
aS'Whip It'
p450
aS'Zombieland'
p451
aS'A Serious Man'
p452
aS'Jackboots on Whitehall'
p453
aS'Couples Retreat'
p454
aS'Bronson'
p455
aS'The Damned United'
p456
aS'Good Hair'
p457
aS'Trucker'
p458
aS'An Education'
p459
aS'Virginia Creepers'
p460
aS'Triangle'
p461
aS'Law Abiding Citizen'
p462
aS'The Stepfather'
p463
aS'Where the Wild Things Are'
p464
aS"Assassin's Creed: Lineage"
p465
aS'Black Dynamite'
p466
aS'Janky Promoters'
p467
aS'The Maid'
p468
aS'Love the Beast'
p469
aS'Amelia'
p470
aS'Astro Boy'
p471
aS"Cirque du Freak: The Vampire's Assistant"
p472
aS'Saw VI'
p473
aS'Antichrist'
p474
aS'Ong Bak 2: The Beginning'
p475
aS'Motherhood'
p476
aS'(Untitled)'
p477
aS'The Marine 2'
p478
aS'Night of the Demons'
p479
aS'Halloweenight'
p480
aS'This Is It'
p481
aS'The Boondock Saints II: All Saints Day'
p482
aS'Gentlemen Broncos'
p483
aS'Skin'
p484
aS'The Box'
p485
aS'A Christmas Carol'
p486
aS'The Fourth Kind'
p487
aS'The Men Who Stare at Goats'
p488
aS'That Evening Sun'
p489
aS'Precious'
p490
aS'XXX: Return of Xander Cage'
p491
aS'The Boat That Rocked\xc2\xa0aka\xc2\xa0Pirate Radio'
p492
aS'The Messenger'
p493
aS'Uncertainty'
p494
aS'Lesbian Vampire Killers'
p495
aS'The Young Victoria'
p496
aS'Fantastic Mr. Fox'
p497
aS'The Blind Side'
p498
aS'The Twilight Saga: New Moon'
p499
aS'Planet 51'
p500
aS'Bad Lieutenant: Port of Call New Orleans'
p501
aS'Broken Embraces'
p502
aS'Nativity!'
p503
aS'Ninja Assassin'
p504
aS'Old Dogs'
p505
aS'Me and Orson Welles'
p506
aS'The Road'
p507
aS"St Trinian's 2: The Legend of Fritton's Gold"
p508
aS'Armored'
p509
aS'Brothers'
p510
aS"Everybody's Fine"
p511
aS'Transylmania'
p512
aS'Up in the Air'
p513
aS'Invictus'
p514
aS'A Single Man'
p515
aS'The Lovely Bones'
p516
aS'The Princess and the Frog'
p517
aS'Crazy Heart'
p518
aS'Avatar'
p519
aS'Did You Hear About the Morgans?'
p520
aS'Nine'
p521
aS'American Pie Presents: The Book of Love'
p522
aS'Alvin and the Chipmunks: The Squeakquel'
p523
aS'The Last Station'
p524
aS"It's Complicated"
p525
aS'Sherlock Holmes'
p526
aS'The Imaginarium of Doctor Parnassus'
p527
aS'The White Ribbon'
p528
aS'The Loss of a Teardrop Diamond'
p529
aS'REC 4: Apocalypse'
p530
aS'The Woman in Black 2: Angel of Death'
p531
aS'20 Once Again'
p532
aS'Blackhat'
p533
aS'The World Made Straight'
p534
aS'I'
p535
aS'Wild Card'
p536
aS'Aambala'
p537
aS'Darling'
p538
aS'Spare Parts'
p539
aS'The Wedding Ringer'
p540
aS'Ex Machina'
p541
aS'The Summer of Sangail\xc4\x97'
p542
aS'A Walk in the Woods'
p543
aS'Knock Knock'
p544
aS'Mortdecai'
p545
aS'Strange Magic'
p546
aS'Tangerine'
p547
aS'The Boy Next Door'
p548
aS'The D Train'
p549
aS'The End of the Tour'
p550
aS'Thottal Thodarum'
p551
aS'Dope'
p552
aS'Mississippi Grind'
p553
aS'Mistress America'
p554
aS'Shaun the Sheep Movie'
p555
aS'Sleeping with Other People'
p556
aS'Slow West'
p557
aS'The Diary of a Teenage Girl'
p558
aS'Z for Zachariah'
p559
aS'Me and Earl and the Dying Girl'
p560
aS'The Hallow'
p561
aS'The Second Mother'
p562
aS'Advantageous'
p563
aS'Brooklyn'
p564
aS"I'll See You In My Dreams"
p565
aS'Jupiter Ascending'
p566
aS'I Kissed a Girl'
p567
aS'Timbuktu'
p568
aS'Alien Outpost'
p569
aS'Boonie Bears: Mystical Winter'
p570
aS'Dharani'
p571
aS'Isai'
p572
aS'Killadi'
p573
aS'Project Almanac'
p574
aS'Pulan Visaranai 2'
p575
aS'Running Man'
p576
aS'The Department'
p577
aS'Touring Talkies'
p578
aS"C'est si bon"
p579
aS'Yennai Arindhaal'
p580
aS'45 Years'
p581
aS'The SpongeBob Movie: Sponge Out of Water'
p582
aS'600 Miles'
p583
aS'Old Fashioned'
p584
aS'Pioneer Heroes'
p585
aS'Bizarre'
p586
aS'Ixcanul'
p587
aS'Queen of Earth'
p588
aS'John Wick'
p589
aS'Goat'
p590
aS'How to Win at Checkers (Every Time)'
p591
aS'Mr. Holmes'
p592
aS'Fifty Shades of Grey'
p593
aS'Life'
p594
aS'Tevar'
p595
aS'The Club'
p596
aS'Accidental Love'
p597
aS'Somewhere Only We Know'
p598
aS'Aferim!'
p599
aS'Muhammad: The Messenger of God'
p600
aS'The Duff'
p601
aS'Cinderella'
p602
aS'Jackpot'
p603
aS'Dragon Blade'
p604
aS'12 Golden Ducks'
p605
aS'Wolf Totem'
p606
aS'Zhong Kui: Snow Girl and the Dark Crystal'
p607
aS'Badlapur'
p608
aS'Hot Tub Time Machine 2'
p609
aS'McFarland, USA'
p610
aS'Aida'
p611
aS'Focus'
p612
aS'The Second Best Exotic Marigold Hotel'
p613
aS'A la mala'
p614
aS'The Lazarus Effect'
p615
aS'Be My Cat: A Film for Anne'
p616
aS'Chappie'
p617
aS'Road Hard'
p618
aS'Unfinished Business'
p619
aS'Home'
p620
aS'Baby(a)lone'
p621
aS'Cicak Man 3'
p622
aS'NH10'
p623
aS'Run All Night'
p624
aS'Suite Fran\xc3\xa7aise'
p625
aS'The Fencer'
p626
aS'The Final Girls'
p627
aS'Addicted to Fresno'
p628
aS'Hello, My Name Is Doris'
p629
aS'Trainwreck'
p630
aS'Enclave'
p631
aS'The Divergent Series: Insurgent'
p632
aS'Danny Collins'
p633
aS'Do You Believe?'
p634
aS'Jalaibee'
p635
aS'The Gunman'
p636
aS'Prizrak'
p637
aS'Get Hard'
p638
aS'Furious 7'
p639
aS'Woman in Gold'
p640
aS'Detective Byomkesh Bakshy!'
p641
aS'Last Knights'
p642
aS'Beyond the Mask'
p643
aS'Dark Places'
p644
aS'Broken Horses'
p645
aS'The Longest Ride'
p646
aS'Infini'
p647
aS'Avengers: Age of Ultron'
p648
aS'Agileswari'
p649
aS'Mia Madre'
p650
aS'Child 44'
p651
aS'Far from the Madding Crowd'
p652
aS'Monkey Kingdom'
p653
aS'Paul Blart: Mall Cop 2'
p654
aS'True Story'
p655
aS'Kidnapping Freddy Heineken'
p656
aS'Man Up'
p657
aS'Pitch Perfect 2'
p658
aS'Maggie'
p659
aS'The Water Diviner'
p660
aS'Little Boy'
p661
aS'The Age of Adaline'
p662
aS'The Falling'
p663
aS'Honey Night'
p664
aS'Arrows of the Thunder Dragon'
p665
aS'Gabbar Is Back'
p666
aS'Mad Max: Fury Road'
p667
aS'Hot Pursuit'
p668
aS'Piku'
p669
aS'The Wall'
p670
aS'Spooks: The Greater Good'
p671
aS'Tomorrowland'
p672
aS'A Royal Night Out'
p673
aS'Les Anarchistes'
p674
aS'Presos'
p675
aS'The High Sun'
p676
aS'Embrace of the Serpent'
p677
aS'Rams'
p678
aS'Son of Saul'
p679
aS'Spy'
p680
aS'The Lobster'
p681
aS'Arabian Nights'
p682
aS'Irrational Man'
p683
aS'The Brand New Testament'
p684
aS'Inside Out'
p685
aS'3 Bahadur'
p686
aS'Mustang'
p687
aS'Sicario'
p688
aS'Lamb'
p689
aS'Love'
p690
aS'Youth'
p691
aS'The Assassin'
p692
aS'Poltergeist'
p693
aS'Return to Sender'
p694
aS'Tanu Weds Manu: Returns'
p695
aS'The Human Centipede 3 (Final Sequence)'
p696
aS'Macbeth'
p697
aS'You Carry Me'
p698
aS'Aloha'
p699
aS'Entourage'
p700
aS'San Andreas'
p701
aS'Jurassic World'
p702
aS'Survivor'
p703
aS'Insidious: Chapter 3'
p704
aS'The Sweet Escape'
p705
aS'Minions'
p706
aS'London Road'
p707
aS'Maya'
p708
aS'Southpaw'
p709
aS'Amy'
p710
aS'The Legend of Barney Thomson'
p711
aS'ABCD 2'
p712
aS'The Messenger'
p713
aS'Under Milk Wood'
p714
aS'Terminator Genisys'
p715
aS'Everest'
p716
aS'Ted 2'
p717
aS'Magic Mike XXL'
p718
aS'Max'
p719
aS'Babai'
p720
aS'Ant-Man'
p721
aS'The Gallows'
p722
aS'Faith of Our Fathers'
p723
aS'Vere Vazhi Ille'
p724
aS'Cartel Land'
p725
aS'Heavenly Nomadic'
p726
aS'Home Care'
p727
aS'Microbe & Gasoline'
p728
aS'Baahubali: The Beginning'
p729
aS'Self/less'
p730
aS'Monster Hunt'
p731
aS'Bajrangi Bhaijaan'
p732
aS'Bin Roye'
p733
aS'Wrong No.'
p734
aS'Bad Night'
p735
aS'Smosh: The Movie'
p736
aS'Mission: Impossible \xe2\x80\x93 Rogue Nation'
p737
aS'7 Letters'
p738
aS'Paper Towns'
p739
aS'Pixels'
p740
aS'The Vatican Tapes'
p741
aS'Utopia'
p742
aS'Vacation'
p743
aS'The Gift'
p744
aS'Karachi Se Lahore'
p745
aS'The Two of Us'
p746
aS'Fantastic Four'
p747
aS'The 33'
p748
aS'To the Fore'
p749
aS'Boruto: Naruto the Movie'
p750
aS'Ricki and the Flash'
p751
aS'The Man from U.N.C.L.E.'
p752
aS'Straight Outta Compton'
p753
aS'Go Away Mr. Tumor'
p754
aS'Shah'
p755
aS'The Clan'
p756
aS'Absolutely Anything'
p757
aS'Moor'
p758
aS'No Escape'
p759
aS'Amnesia'
p760
aS'Our Everyday Life'
p761
aS'American Ultra'
p762
aS'Hitman: Agent 47'
p763
aS'Sinister 2'
p764
aS'The Bad Education Movie'
p765
aS'We Are Your Friends'
p766
aS'A War'
p767
aS'The Wave'
p768
aS'War Room'
p769
aS'The Perfect Guy'
p770
aS'Beasts of No Nation'
p771
aS'Spotlight'
p772
aS'Anomalisa'
p773
aS'Black Mass'
p774
aS'Room'
p775
aS'Break Point'
p776
aS'Dragon Blade'
p777
aS'He Named Me Malala'
p778
aS'Steve Jobs: The Man in the Machine'
p779
aS'Suffragette'
p780
aS'The Transporter Refueled'
p781
aS'Viva'
p782
aS'Steve Jobs'
p783
aS'The Danish Girl'
p784
aS'Stranger'
p785
aS"Don't Be Bad"
p786
aS'The Visit'
p787
aS'11 Minutes'
p788
aS'Baba Joon'
p789
aS'Heneral Luna'
p790
aS'Legend'
p791
aS'Where to Invade Next'
p792
aS'Remember'
p793
aS'90 Minutes in Heaven'
p794
aS'Born to Dance'
p795
aS'Eye in the Sky'
p796
aS'I Saw the Light'
p797
aS'Manto'
p798
aS'Our Brand Is Crisis'
p799
aS'Pawn Sacrifice'
p800
aS'The Martian'
p801
aS'Miss You Already'
p802
aS'The Lady in the Van'
p803
aS'Trumbo'
p804
aS'Truth'
p805
aS'Freeheld'
p806
aS'The Paradise Suite'
p807
aS'The Dressmaker'
p808
aS'The Program'
p809
aS'The Intern'
p810
aS'The Throne'
p811
aS'Polis Evo'
p812
aS'Bill'
p813
aS'Captive'
p814
aS'Maze Runner: The Scorch Trials'
p815
aS'Regression'
p816
aS'Stonewall'
p817
aS'Moira'
p818
aS'Jwanita'
p819
aS'Hotel Transylvania 2'
p820
aS'Jawani Phir Nahi Ani'
p821
aS'Pan'
p822
aS'The Walk'
p823
aS'Hell and Back'
p824
aS'Bridge of Spies'
p825
aS'Goosebumps'
p826
aS'Burnt'
p827
aS'Crimson Peak'
p828
aS'Woodlawn'
p829
aS'Rock the Kasbah'
p830
aS'Jem and the Holograms'
p831
aS'Paranormal Activity: The Ghost Dimension'
p832
aS'The Last Witch Hunter'
p833
aS'Spectre'
p834
aS'Scouts Guide to the Zombie Apocalypse'
p835
aS'The Peanuts Movie'
p836
aS'Love the Coopers'
p837
aS'The Hunger Games: Mockingjay \xe2\x80\x93 Part 2'
p838
aS'By the Sea'
p839
aS'The Good Dinosaur'
p840
aS'Vedalam'
p841
aS'Prem Ratan Dhan Payo'
p842
aS'My All American'
p843
aS'Carol'
p844
aS'The Night Before'
p845
aS'Secret in Their Eyes'
p846
aS'Creed'
p847
aS'Victor Frankenstein'
p848
aS'Krampus'
p849
aS'The Letters'
p850
aS'Macbeth'
p851
aS'Every Thing Will Be Fine'
p852
aS'Christmas Eve'
p853
aS'Youth'
p854
aS'A Royal Night Out'
p855
aS'In the Heart of the Sea'
p856
aS'The Big Short'
p857
aS'Star Wars: The Force Awakens'
p858
aS'Alvin and the Chipmunks: The Road Chip'
p859
aS'Sisters'
p860
aS'Dilwale'
p861
aS'Concussion'
p862
aS"Daddy's Home"
p863
aS'Joy'
p864
aS'Point Break'
p865
aS'The Hateful Eight'
p866
aS'The Revenant'
p867
aS'The Best Offer'
p868
aS'Jamesy Boy'
p869
aS'Open Grave'
p870
aS'Yves Saint Laurent'
p871
aS'Dumbbells'
p872
aS'Redirected'
p873
aS'The Adventurer: The Curse of the Midas Box'
p874
aS'The Legend of Hercules'
p875
aS'Raze'
p876
aS'The Nut Job'
p877
aS'Divin Enfant'
p878
aS'Jack Ryan: Shadow Recruit'
p879
aS'Lilting'
p880
aS'Whiplash'
p881
aS'Back in the Day'
p882
aS'Camp X-Ray'
p883
aS"Devil's Due"
p884
aS'Fishing Without Nets'
p885
aS'Frank'
p886
aS'Freezer'
p887
aS'Hellion'
p888
aS'Kidnapped for Christ'
p889
aS'Laggies'
p890
aS'Obvious Child'
p891
aS'Ride Along'
p892
aS'The Guest'
p893
aS'Big Bad Wolves'
p894
aS'Like Father, Like Son'
p895
aS'Summer in February'
p896
aS"Drunktown's Finest"
p897
aS'Alive Inside: A Story of Music and Memory'
p898
aS'Appropriate Behavior'
p899
aS'Dear White People'
p900
aS'Difret'
p901
aS'God Help the Girl'
p902
aS'Walk Among Tombstones'
p903
aS'I Origins'
p904
aS'Love Is Strange'
p905
aS'The Better Angels'
p906
aS'The Case Against 8'
p907
aS'Wish I Was Here'
p908
aS'Young Ones'
p909
aS'A Most Wanted Man'
p910
aS'Boyhood'
p911
aS'Calvary'
p912
aS'Dead Snow: Red vs. Dead'
p913
aS'Alice in Wonderland'
p914
aS'The Signal'
p915
aS'The Trip to Italy'
p916
aS'The One I Love'
p917
aS'The Raid 2'
p918
aS'I, Frankenstein'
p919
aS'Jai Ho'
p920
aS'Gloria'
p921
aS'Run & Jump'
p922
aS'24 Exposures'
p923
aS'Gimme Shelter'
p924
aS'The Idolmaster Movie: Beyond the Brilliant Future!'
p925
aS'The Monkey King'
p926
aS'Non-Stop'
p927
aS'That Awkward Moment'
p928
aS"Jacky in Women's Kingdom"
p929
aS'RoboCop'
p930
aS'Noble'
p931
aS'Best Night Ever'
p932
aS'The Lego Movie'
p933
aS'Barefoot'
p934
aS'A Few Cubic Meters of Love'
p935
aS'The Grand Budapest Hotel'
p936
aS"'71"
p937
aS'Mr. Peabody & Sherman'
p938
aS'The Monuments Men'
p939
aS'Two Men in Town'
p940
aS'Vampire Academy'
p941
aS'A Long Way Down'
p942
aS'The Dark Valley'
p943
aS'About Last Night'
p944
aS'The Two Faces of January'
p945
aS'3 Days to Kill'
p946
aS'Beauty and the Beast'
p947
aS'C\xc3\xa9sar Ch\xc3\xa1vez'
p948
aS'Les Trois Fr\xc3\xa8res, le retour'
p949
aS"Winter's Tale"
p950
aS'Cuban Fury'
p951
aS'Devil in the Detail'
p952
aS'Endless Love'
p953
aS'Gunday'
p954
aS'Pompeii'
p955
aS"Giovanni's Island"
p956
aS'Vengeance'
p957
aS'Supercondriaque'
p958
aS'Repentance'
p959
aS'Son of God'
p960
aS'300: Rise of an Empire'
p961
aS'Apaye'
p962
aS'Chef'
p963
aS'Neighbors'
p964
aS'Predestination'
p965
aS'Faults'
p966
aS'Vessel'
p967
aS'Before I Disappear'
p968
aS'Noah'
p969
aS'Muppets Most Wanted'
p970
aS'Fiston'
p971
aS'Need for Speed'
p972
aS'Captain America: The Winter Soldier'
p973
aS'Better Living Through Chemistry'
p974
aS'The Single Moms Club'
p975
aS'Veronica Mars'
p976
aS'Rob the Mob'
p977
aS'Divergent'
p978
aS'Sabotage'
p979
aS'Rio 2'
p980
aS"God's Not Dead"
p981
aS'Render to Caesar'
p982
aS'The Amazing Spider-Man 2'
p983
aS'The Other Woman'
p984
aS'Island of Lemurs: Madagascar'
p985
aS'Where Hope Grows'
p986
aS'Draft Day'
p987
aS'The Quiet Ones'
p988
aS'Transcendence'
p989
aS'Heaven Is for Real'
p990
aS'The Identical'
p991
aS'Virunga'
p992
aS'Preservation'
p993
aS'2 States'
p994
aS'A Haunted House 2'
p995
aS'Bears'
p996
aS"Knocking on Heaven's Door"
p997
aS'Detective Conan: Dimensional Sniper'
p998
aS'Next Goal Wins'
p999
aS'Brick Mansions'
p1000
aS'A Brony Tale'
p1001
aS'Walk of Shame'
p1002
aS'Million Dollar Arm'
p1003
aS'Godzilla'
p1004
aS"Moms' Night Out"
p1005
aS'X-Men: Days of Future Past'
p1006
aS'Timbuktu'
p1007
aS'How to Train Your Dragon 2'
p1008
aS'The Fault in Our Stars'
p1009
aS'It Follows'
p1010
aS'Run'
p1011
aS'Saint Laurent'
p1012
aS'The Salvation'
p1013
aS'Wild Tales'
p1014
aS'The Rover'
p1015
aS'Foxcatcher'
p1016
aS'Mischief Night'
p1017
aS'The Search'
p1018
aS'Blended'
p1019
aS'The Angriest Man in Brooklyn'
p1020
aS'Edge of Tomorrow'
p1021
aS'Maleficent'
p1022
aS'Make a Move'
p1023
aS'A Million Ways to Die in the West'
p1024
aS'Being Mrs Elliot'
p1025
aS'22 Jump Street'
p1026
aS'Jersey Boys'
p1027
aS'Holiday: A Soldier Is Never Off Duty'
p1028
aS'Earth to Echo'
p1029
aS'Transformers: Age of Extinction'
p1030
aS'Think Like a Man Too'
p1031
aS'Dawn of the Planet of the Apes'
p1032
aS'Ek Villain'
p1033
aS"Mrs. Brown's Boys D'Movie"
p1034
aS'The Breakup Guru'
p1035
aS'Deliver Us from Evil'
p1036
aS'Tammy'
p1037
aS'Desert Dancer'
p1038
aS'The Anomaly'
p1039
aS'Planes: Fire & Rescue'
p1040
aS'Persecuted'
p1041
aS'Sex Tape'
p1042
aS'The Purge: Anarchy'
p1043
aS'Pok\xc3\xa9mon the Movie: Diancie and the Cocoon of Destruction'
p1044
aS'When Marnie Was There'
p1045
aS'Unfriended'
p1046
aS'Veve'
p1047
aS'Angry Video Game Nerd: The Movie'
p1048
aS'Guardians of the Galaxy'
p1049
aS'And So It Goes'
p1050
aS'Hercules'
p1051
aS'Kick'
p1052
aS'Lucy'
p1053
aS'Magic in the Moonlight'
p1054
aS'The Fluffy Movie'
p1055
aS'Teenage Mutant Ninja Turtles'
p1056
aS'Get on Up'
p1057
aS'The Expendables 3'
p1058
aS'When the Game Stands Tall'
p1059
aS'The Inbetweeners 2'
p1060
aS'Into the Storm'
p1061
aS'Stand by Me Doraemon'
p1062
aS'Step Up: All In'
p1063
aS'The Hundred-Foot Journey'
p1064
aS'The Giver'
p1065
aS'Men Who Save the World'
p1066
aS"Let's Be Cops"
p1067
aS'Anjaan'
p1068
aS'Hector and the Search for Happiness'
p1069
aS'Singham Returns'
p1070
aS'If I Stay'
p1071
aS'Sin City: A Dame to Kill For'
p1072
aS'Birdman'
p1073
aS'The November Man'
p1074
aS'As Above, So Below'
p1075
aS'Rosewater'
p1076
aS'The Imitation Game'
p1077
aS'Wild'
p1078
aS'The Boxtrolls'
p1079
aS'Before I Go to Sleep'
p1080
aS'The Judge'
p1081
aS'Mary Kom'
p1082
aS'Nightcrawler'
p1083
aS'St. Vincent'
p1084
aS'X+Y'
p1085
aS'Welcome to Me'
p1086
aS'Beyond the Lights'
p1087
aS'Top Five'
p1088
aS'Tusk'
p1089
aS'Love & Mercy'
p1090
aS'Ned Rifle'
p1091
aS'The Equalizer'
p1092
aS'The Good Lie'
p1093
aS'The Theory of Everything'
p1094
aS'Dolphin Tale 2'
p1095
aS'Finding Fanny'
p1096
aS'No Good Deed'
p1097
aS'The Drop'
p1098
aS'A Walk Among the Tombstones'
p1099
aS'The Maze Runner'
p1100
aS'This Is Where I Leave You'
p1101
aS'Annabelle'
p1102
aS'Believe Me'
p1103
aS'Gone Girl'
p1104
aS'My Little Pony: Equestria Girls \xe2\x80\x93 Rainbow Rocks'
p1105
aS'Bang Bang!'
p1106
aS'Left Behind'
p1107
aS'Inherent Vice'
p1108
aS'Alexander and the Terrible, Horrible, No Good, Very Bad Day'
p1109
aS'Na Maloom Afraad'
p1110
aS'O21'
p1111
aS'Addicted'
p1112
aS'Dracula Untold'
p1113
aS'Kill the Messenger'
p1114
aS'The Book of Life'
p1115
aS'John Wick'
p1116
aS'Northmen: A Viking Saga'
p1117
aS'Candlestick'
p1118
aS'Fury'
p1119
aS'The Best of Me'
p1120
aS'American Heist'
p1121
aS'Big Hero 6'
p1122
aS'Happy New Year'
p1123
aS'Ouija'
p1124
aS'Interstellar'
p1125
aS'A Most Violent Year'
p1126
aS'Jessabelle'
p1127
aS'The Gambler'
p1128
aS'The Hunger Games: Mockingjay \xe2\x80\x93 Part 1'
p1129
aS'American Sniper'
p1130
aS'Dumb and Dumber To'
p1131
aS"Nativity 3: Dude, Where's My Donkey?"
p1132
aS'Penguins of Madagascar'
p1133
aS'Saving Christmas'
p1134
aS'Unbroken'
p1135
aS'Horrible Bosses 2'
p1136
aS'Paddington'
p1137
aS'The Hobbit: The Battle of the Five Armies'
p1138
aS'The Pyramid'
p1139
aS'The Last: Naruto the Movie'
p1140
aS'Annie'
p1141
aS'Into the Woods'
p1142
aS'Mythica: A Quest for Heroes'
p1143
aS'Night at the Museum: Secret of the Tomb'
p1144
aS'The Interview'
p1145
aS'Exodus: Gods and Kings'
p1146
aS'Kingsman: The Secret Service'
p1147
aS'Taken 3'
p1148
aS'Seventh Son'
p1149
aS'PK'
p1150
aS'Big Eyes'
p1151
aS"Let's Kill Ward's Wife"
p1152
aS'Selma'
p1153
aS'The Water Diviner'
p1154
aS'A Dark Truth'
p1155
aS'Table No. 21'
p1156
aS'Texas Chainsaw 3D'
p1157
aS'Crawlspace'
p1158
aS'The Grandmaster'
p1159
aS'A Haunted House'
p1160
aS'Gangster Squad'
p1161
aS'Matru Ki Bijlee Ka Mandola'
p1162
aS'Struck by Lightning'
p1163
aS'The Baytown Outlaws'
p1164
aS'Freeloaders'
p1165
aS'Struck by Lightning'
p1166
aS'Horrid Henry: The Movie'
p1167
aS'Hansel & Gretel: Witch Hunters'
p1168
aS'Broken City'
p1169
aS'LUV'
p1170
aS'Mama'
p1171
aS'Officer Down'
p1172
aS'The Last Stand'
p1173
aS'John Dies at the End'
p1174
aS'Knife Fight'
p1175
aS'Movie 43'
p1176
aS'Parker'
p1177
aS'Race 2'
p1178
aS'Television'
p1179
aS'Happy People: A Year in the Taiga'
p1180
aS'The Taste of Money'
p1181
aS'Supporting Characters'
p1182
aS'Yossi'
p1183
aS'As Luck Would Have It'
p1184
aS'Bullet to the Head'
p1185
aS'Sound City'
p1186
aS'Stand Up Guys'
p1187
aS'The Haunting in Connecticut 2: Ghosts of Georgia'
p1188
aS'Warm Bodies'
p1189
aS'A Glimpse Inside the Mind of Charles Swan III'
p1190
aS'I Give It a Year'
p1191
aS'Identity Thief'
p1192
aS'Side Effects'
p1193
aS'Special 26'
p1194
aS'Top Gun 3D'
p1195
aS'Journey to the West: Conquering the Demons'
p1196
aS'A Good Day to Die Hard'
p1197
aS'Beautiful Creatures'
p1198
aS'Murder 3'
p1199
aS'Safe Haven'
p1200
aS'Escape from Planet Earth'
p1201
aS'Bless Me, Ultima'
p1202
aS'Dark Skies'
p1203
aS'Kai Po Che!'
p1204
aS'Snitch'
p1205
aS'To the Wonder'
p1206
aS'21 & Over'
p1207
aS'I, Me Aur Main'
p1208
aS'Jack the Giant Slayer'
p1209
aS'Phantom'
p1210
aS'Stoker'
p1211
aS'The Attacks of 26/11'
p1212
aS'The Last Exorcism Part II'
p1213
aS'Dead Man Down'
p1214
aS'Emperor'
p1215
aS"I'm So Excited"
p1216
aS'Oz the Great and Powerful'
p1217
aS'Goddess'
p1218
aS'Spring Breakers'
p1219
aS'The Call'
p1220
aS'The Incredible Burt Wonderstone'
p1221
aS'Welcome to the Punch'
p1222
aS'Admission'
p1223
aS'Inappropriate Comedy'
p1224
aS'Love and Honor'
p1225
aS'Olympus Has Fallen'
p1226
aS'The Croods'
p1227
aS'G.I. Joe: Retaliation'
p1228
aS'Trance'
p1229
aS'Himmatwala'
p1230
aS'Temptation: Confessions of a Marriage Counselor'
p1231
aS'The Host'
p1232
aS'The Place Beyond the Pines'
p1233
aS'Wrong'
p1234
aS'Dragon Ball Z: Battle of Gods'
p1235
aS'Baadshah'
p1236
aS'Evil Dead'
p1237
aS'Jurassic Park 3D'
p1238
aS'Settai'
p1239
aS'The Brass Teapot'
p1240
aS'Upstream Color'
p1241
aS'Fists of Legend'
p1242
aS'Oblivion'
p1243
aS'Scaface'
p1244
aS'Disconnect'
p1245
aS"It's a Disaster"
p1246
aS'Scary Movie 5'
p1247
aS'Java Heat'
p1248
aS'Home Run'
p1249
aS'The Lords of Salem'
p1250
aS'At Any Price'
p1251
aS'Iron Man 3'
p1252
aS'Arthur Newman'
p1253
aS'Mud'
p1254
aS'Pain & Gain'
p1255
aS'So Young'
p1256
aS'The Big Wedding'
p1257
aS'The Look of Love'
p1258
aS'Bombay Talkies'
p1259
aS'Greetings from Tim Buckley'
p1260
aS'Kiss of the Damned'
p1261
aS'Shootout at Wadala'
p1262
aS'The Iceman'
p1263
aS'What Maisie Knew'
p1264
aS'Star Trek Into Darkness'
p1265
aS'Aftershock'
p1266
aS'Go Goa Gone'
p1267
aS"He's Way More Famous Than You"
p1268
aS'No One Lives'
p1269
aS'The Great Gatsby'
p1270
aS'Peeples'
p1271
aS'Aurangzeb'
p1272
aS'Black Rock'
p1273
aS'Fast & Furious 6'
p1274
aS'Frances Ha'
p1275
aS'The English Teacher'
p1276
aS'The Reluctant Fundamentalist'
p1277
aS'The Hangover Part III'
p1278
aS'Before Midnight'
p1279
aS'Epic'
p1280
aS'Only God Forgives'
p1281
aS'After Earth'
p1282
aS'Byzantium'
p1283
aS'Now You See Me'
p1284
aS'The East'
p1285
aS'The Kings of Summer'
p1286
aS'The Purge'
p1287
aS'Yeh Jawaani Hai Deewani'
p1288
aS'Hello Herman'
p1289
aS'Much Ado About Nothing'
p1290
aS'The Internship'
p1291
aS'Tiger Eyes'
p1292
aS'Violet & Daisy'
p1293
aS'This Is the End'
p1294
aS'Fukrey'
p1295
aS'Man of Steel'
p1296
aS'The Bling Ring'
p1297
aS'My Little Pony: Equestria Girls'
p1298
aS'Despicable Me 2'
p1299
aS'Monsters University'
p1300
aS'This Is Martin Bonner'
p1301
aS'World War Z'
p1302
aS'100 Bloody Acres'
p1303
aS'Copperhead'
p1304
aS'The Heat'
p1305
aS'White House Down'
p1306
aS'The Lone Ranger'
p1307
aS'Hammer of the Gods'
p1308
aS'Lootera'
p1309
aS'Stuck in Love'
p1310
aS'The Way, Way Back'
p1311
aS'Bad Words'
p1312
aS'Bhaag Milkha Bhaag'
p1313
aS"Dealin' with Idiots"
p1314
aS'Fruitvale Station'
p1315
aS'Grown Ups 2'
p1316
aS'Killing Season'
p1317
aS'Pacific Rim'
p1318
aS'V/H/S/2'
p1319
aS'Pok\xc3\xa9mon the Movie: Genesect and the Legend Awakened'
p1320
aS'Turbo'
p1321
aS'D-Day'
p1322
aS'Girl Most Likely'
p1323
aS'RED 2'
p1324
aS'R.I.P.D.'
p1325
aS'The Conjuring'
p1326
aS"The World's End"
p1327
aS'The Wolverine'
p1328
aS'Blue Jasmine'
p1329
aS'Romeo and Juliet'
p1330
aS'The To Do List'
p1331
aS'The Smurfs 2'
p1332
aS'2 Guns'
p1333
aS'Europa Report'
p1334
aS'The Canyons'
p1335
aS'The Spectacular Now'
p1336
aS'Percy Jackson: Sea of Monsters'
p1337
aS"We're the Millers"
p1338
aS'Attarintiki Daredi'
p1339
aS'Chennai Express'
p1340
aS'Elysium'
p1341
aS'Planes'
p1342
aS'Thalaivaa'
p1343
aS'Kick-Ass 2'
p1344
aS"Ain't Them Bodies Saints"
p1345
aS'Jobs'
p1346
aS'Paranoia'
p1347
aS'The Butler'
p1348
aS'The Mortal Instruments: City of Bones'
p1349
aS'Drinking Buddies'
p1350
aS'Scenic Route'
p1351
aS'Short Term 12'
p1352
aS"You're Next"
p1353
aS'Closed Circuit'
p1354
aS'One Direction: This Is Us'
p1355
aS'Getaway'
p1356
aS'The Lifeguard'
p1357
aS'Hell Baby'
p1358
aS'Riddick'
p1359
aS'Shuddh Desi Romance'
p1360
aS'Touchy Feely'
p1361
aS'Winnie Mandela'
p1362
aS'Insidious: Chapter 2'
p1363
aS'The Family'
p1364
aS'Battle of the Year'
p1365
aS'Enough Said'
p1366
aS'Prisoners'
p1367
aS'Rush'
p1368
aS'Sunshine on Leith'
p1369
aS'The Wizard of Oz 3D'
p1370
aS'Baggage Claim'
p1371
aS'Cloudy with a Chance of Meatballs 2'
p1372
aS'Don Jon'
p1373
aS'Metallica Through the Never'
p1374
aS'Ramayya Vasthavayya'
p1375
aS'Runner Runner'
p1376
aS'Gravity'
p1377
aS'Grace Unplugged'
p1378
aS'Escape Plan'
p1379
aS'Captain Phillips'
p1380
aS"The Devil's Rapture"
p1381
aS'The Fifth Estate'
p1382
aS'Machete Kills'
p1383
aS'12 Years a Slave'
p1384
aS'Carrie'
p1385
aS"I'm in Love with a Church Girl"
p1386
aS'Thor: The Dark World'
p1387
aS'The Counselor'
p1388
aS'Jackass Presents: Bad Grandpa'
p1389
aS'Dallas Buyers Club'
p1390
aS"Ender's Game"
p1391
aS'Free Birds'
p1392
aS'Last Vegas'
p1393
aS'The Hunger Games: Catching Fire'
p1394
aS'The Best Man Holiday'
p1395
aS'The Book Thief'
p1396
aS'Frozen'
p1397
aS'Delivery Man'
p1398
aS'Nebraska'
p1399
aS'Anchorman 2: The Legend Continues'
p1400
aS'Black Nativity'
p1401
aS'Grace of Monaco'
p1402
aS'Homefront'
p1403
aS'Oldboy'
p1404
aS'Mandela: Long Walk to Freedom'
p1405
aS'The Hobbit: The Desolation of Smaug'
p1406
aS'Inside Llewyn Davis'
p1407
aS'Out of the Furnace'
p1408
aS'A Madea Christmas'
p1409
aS'American Hustle'
p1410
aS'Saving Mr. Banks'
p1411
aS'The Wolf of Wall Street'
p1412
aS'Her'
p1413
aS'Walking with Dinosaurs'
p1414
aS'47 Ronin'
p1415
aS'August: Osage County'
p1416
aS'Grudge Match'
p1417
aS'Jack Ryan: Shadow Recruit'
p1418
aS'The Secret Life of Walter Mitty'
p1419
aS'Lone Survivor'
p1420
aaI0
aI0
aI0
a(lp1421
I0
aI0
aI0
aI0
aI0
aI0
aI0
aI0
aI0
aI0
aI0
aI0
aI0
aI0
aI0
aI0
aI0
aI0
aI0
aI0
aI0
aI0
aI0
aI0
aI0
aI0
aI0
aI0
aI0
aI0
aI0
aI0
aI0
aI0
aI0
aI0
aI0
aI0
aI0
aI0
aI0
aI0
aI0
aI0
aI0
aI0
aI0
aI0
aI0
aI0
aI0
aI0
aI0
aI0
aI0
aI0
aI0
aI0
aI0
aI0
aI0
aI0
aI0
aI0
aI0
aI0
aI0
aI0
aI0
aI0
aI0
aI0
aI0
aI0
aI0
aI0
aI0
aI0
aI0
aI0
aI0
aI0
aI0
aI0
aI0
aI0
aI0
aI0
aI0
aI0
aI0
aI0
aI0
aI0
aI0
aI0
aI0
aI0
aI0
aI0
aI0
aI0
aI0
aI0
aI0
aI0
aI0
aI0
aI0
aI0
aI0
aI0
aI0
aI0
aI0
aI0
aI0
aI0
aI0
aI0
aI0
aI0
aI0
aI0
aI0
aI0
aI0
aI0
aI0
aI0
aI0
aI0
aI0
aI0
aI0
aI0
aI0
aI0
aI0
aI0
aI0
aI0
aI0
aI0
aI0
aI0
aI0
aI0
aI0
aI0
aI0
aI0
aI0
aI0
aI0
aI0
aI0
aI0
aI0
aI0
aI0
aI0
aI0
aI0
aI0
aI0
aI0
aI0
aI0
aI0
aI0
aI0
aI0
aI0
aI0
aI0
aI0
aI0
aI0
aI0
aI0
aI0
aI0
aI0
aI0
aI0
aI0
aI0
aI0
aI0
aI0
aI0
aI0
aI0
aI0
aI0
aI0
aI0
aI0
aI0
aI0
aI0
aI0
aI0
aI0
aI0
aI0
aI0
aI0
aI0
aI0
aI0
aI0
aI0
aI0
aI0
aI0
aI0
aI0
aI0
aI0
aI0
aI0
aI0
aI0
aI0
aI0
aI0
aI0
aI0
aI0
aI0
aI0
aI0
aI0
aI0
aI0
aI0
aI0
aI0
aI0
aI0
aI0
aI0
aI0
aI0
aI0
aI0
aI0
aI0
aI0
aI0
aI0
aI0
aI0
aI0
aI0
aI0
aI0
aI0
aI0
aI0
aI0
aI0
aI0
aI0
aI0
aI0
aI0
aI0
aI0
aI0
aI0
aI0
aI0
aI0
aI0
aI0
aI0
aI0
aI0
aI0
aI0
aI0
aI0
aI0
aI0
aI0
aI0
aI0
aI0
aI0
aI0
aI0
aI0
aI0
aI0
aI0
aI0
aI0
aI0
aI0
aI0
aI0
aI0
aI0
aI0
aI0
aI0
aI0
aI0
aI0
aI0
aI0
aI0
aI0
aI0
aI0
aI0
aI0
aI0
aI0
aI0
aI0
aI0
aI0
aI0
aI0
aI0
aI0
aI0
aI0
aI0
aI0
aI0
aI0
aI0
aI0
aI0
aI0
aI0
aI0
aI0
aI0
aI0
aI0
aI0
aI0
aI0
aI0
aI0
aI0
aI0
aI0
aI0
aI0
aI0
aI0
aI0
aI0
aI0
aI0
aI0
aI0
aI0
aI0
aI0
aI0
aI0
aI0
aI0
aI0
aI0
aI0
aI0
aI0
aI0
aI0
aI0
aI0
aI0
aI0
aI0
aI0
aI0
aI0
aI0
aI0
aI0
aI0
aI0
aI0
aI0
aI0
aI0
aI0
aI0
aI0
aI0
aI0
aI0
aI0
aI0
aI0
aI0
aI0
aI0
aI0
aI0
aI0
aI0
aI0
aI0
aI0
aI0
aI0
aI0
aI0
aI0
aI0
aI0
aI0
aI0
aI0
aI0
aI0
aI0
aI0
aI0
aI0
aI0
aI0
aI0
aI0
aI0
aI0
aI0
aI0
aI0
aI0
aI0
aI0
aI0
aI0
aI0
aI0
aI0
aI0
aI0
aI0
aI0
aI0
aI0
aI0
aI0
aI0
aI0
aI0
aI0
aI0
aI0
aI0
aI0
aI0
aI0
aI0
aI0
aI0
aI0
aI0
aI0
aI0
aI0
aI0
aI0
aI0
aI0
aI0
aI0
aI0
aI0
aI0
aI0
aI0
aI0
aI0
aI0
aI0
aI0
aI0
aI0
aI0
aI0
aI0
aI0
aI0
aI0
aI0
aI0
aI0
aI0
aI0
aI0
aI0
aI0
aI0
aI0
aI0
aI0
aI0
aI0
aI0
aI0
aI0
aI0
aI0
aI0
aI0
aI0
aI0
aI0
aI0
aI0
aI0
aI0
aI0
aI0
aI0
aI0
aI0
aI0
aI0
aI0
aI0
aI0
aI0
aI0
aI0
aI0
aI0
aI0
aI0
aI0
aI0
aI0
aI0
aI0
aI0
aI0
aI0
aI0
aI0
aI0
aI0
aI0
aI0
aI0
aI0
aI0
aI0
aI0
aI0
aI0
aI0
aI0
aI0
aI0
aI0
aI0
aI0
aI0
aI0
aI0
aI0
aI0
aI0
aI0
aI0
aI0
aI0
aI0
aI0
aI0
aI0
aI0
aI0
aI0
aI0
aI0
aI0
aI0
aI0
aI0
aI0
aI0
aI0
aI0
aI0
aI0
aI0
aI0
aI0
aI0
aI0
aI0
aI0
aI0
aI0
aI0
aI0
aI0
aI0
aI0
aI0
aI0
aI0
aI0
aI0
aI0
aI0
aI0
aI0
aI0
aI0
aI0
aI0
aI0
aI0
aI0
aI0
aI0
aI0
aI0
aI0
aI0
aI0
aI0
aI0
aI0
aI0
aI0
aI0
aI0
aI0
aI0
aI0
aI0
aI0
aI0
aI0
aI0
aI0
aI0
aI0
aI0
aI0
aI0
aI0
aI0
aI0
aI0
aI0
aI0
aI0
aI0
aI0
aI0
aI0
aI0
aI0
aI0
aI0
aI0
aI0
aI0
aI0
aI0
aI0
aI0
aI0
aI0
aI0
aI0
aI0
aI0
aI0
aI0
aI0
aI0
aI0
aI0
aI0
aI0
aI0
aI0
aI0
aI0
aI0
aI0
aI0
aI0
aI0
aI0
aI0
aI0
aI0
aI0
aI0
aI0
aI0
aI0
aI0
aI0
aI0
aI0
aI0
aI0
aI0
aI0
aI0
aI0
aI0
aI0
aI0
aI0
aI0
aI0
aI0
aI0
aI0
aI0
aI0
aI0
aI0
aI0
aI0
aI0
aI0
aI0
aI0
aI0
aI0
aI0
aI0
aI0
aI0
aI0
aI0
aI0
aI0
aI0
aI0
aI0
aI0
aI0
aI0
aI0
aI0
aI0
aI0
aI0
aI0
aI0
aI0
aI0
aI0
aI0
aI0
aI0
aI0
aI0
aI0
aI0
aI0
aI0
aI0
aI0
aI0
aI0
aI0
aI0
aI0
aI0
aI0
aI0
aI0
aI0
aI0
aI0
aI0
aI0
aI0
aI0
aI0
aI0
aI0
aI0
aI0
aI0
aI0
aI0
aI0
aI0
aI0
aI0
aI0
aI0
aI0
aI0
aI0
aI0
aI0
aI0
aI0
aI0
aI0
aI0
aI0
aI0
aI0
aI0
aI0
aI0
aI0
aI0
aI0
aI0
aI0
aI0
aI0
aI0
aI0
aI0
aI0
aI0
aI0
aI0
aI0
aI0
aI0
aI0
aI0
aI0
aI0
aI0
aI0
aI0
aI0
aI0
aI0
aI0
aI0
aI0
aI0
aI0
aI0
aI0
aI0
aI0
aI0
aI0
aI0
aI0
aI0
aI0
aI0
aI0
aI0
aI0
aI0
aI0
aI0
aI0
aI0
aI0
aI0
aI0
aI0
aI0
aI0
aI0
aI0
aI0
aI0
aI0
aI0
aI0
aI0
aI0
aI0
aI0
aI0
aI0
aI0
aI0
aI0
aI0
aI0
aI0
aI0
aI0
aI0
aI0
aI0
aI0
aI0
aI0
aI0
aI0
aI0
aI0
aI0
aI0
aI0
aI0
aI0
aI0
aI0
aI0
aI0
aI0
aI0
aI0
aI0
aI0
aI0
aI0
aI0
aI0
aI0
aI0
aI0
aI0
aI0
aI0
aI0
aI0
aI0
aI0
aI0
aI0
aI0
aI0
aI0
aI0
aI0
aI0
aI0
aI0
aI0
aI0
aI0
aI0
aI0
aI0
aI0
aI0
aI0
aI0
aI0
aI0
aI0
aI0
aI0
aI0
aI0
aI0
aI0
aI0
aI0
aI0
aI0
aI0
aI0
aI0
aI0
aI0
aI0
aI0
aI0
aI0
aI0
aI0
aI0
aI0
aI0
aI0
aI0
aI0
aI0
aI0
aI0
aI0
aI0
aI0
aI0
aI0
aI0
aI0
aI0
aI0
aI0
aI0
aI0
aI0
aI0
aI0
aI0
aI0
aI0
aI0
aI0
aI0
aI0
aI0
aI0
aI0
aI0
aI0
aI0
aI0
aI0
aI0
aI0
aI0
aI0
aI0
aI0
aI0
aI0
aI0
aI0
aI0
aI0
aI0
aI0
aI0
aI0
aI0
aI0
aI0
aI0
aI0
aI0
aI0
aI0
aI0
aI0
aI0
aI0
aI0
aI0
aI0
aI0
aI0
aI0
aI0
aI0
aI0
aI0
aI0
aI0
aI0
aI0
aI0
aI0
aI0
aI0
aI0
aI0
aI0
aI0
aI0
aI0
aI0
aI0
aI0
aI0
aI0
aI0
aI0
aI0
aI0
aI0
aI0
aI0
aI0
aI0
aI0
aI0
aI0
aI0
aI0
aI0
aI0
aI0
aI0
aI0
aI0
aI0
aI0
aI0
aI0
aI0
aI0
aI0
aI0
aI0
aI0
aI0
aI0
aI0
aI0
aI0
aI0
aI0
aI0
aI0
aI0
aI0
aI0
aI0
aI0
aI0
aI0
aI0
aI0
aI0
aI0
aI0
aI0
aI0
aI0
aI0
aI0
aI0
aI0
aI0
aI0
aI0
aI0
aI0
aI0
aI0
aI0
aI0
aI0
aI0
aI0
aI0
aI0
aI0
aI0
aI0
aI0
aI0
aI0
aI0
aI0
aI0
aI0
aI0
aI0
aI0
aI0
aI0
aI0
aI0
aI0
aI0
aI0
aI0
aI0
aI0
aI0
aI0
aI0
aI0
aI0
aI0
aI0
aI0
aI0
aI0
aI0
aI0
aI0
aI0
aI0
aI0
aI0
aI0
aI0
aI0
aI0
aI0
aI0
aI0
aI0
aI0
aI0
aI0
aI0
aI0
aI0
aI0
aI0
aI0
aI0
aI0
aI0
aI0
aI0
aI0
aI0
aI0
aI0
aI0
aI0
aI0
aI0
aI0
aI0
aI0
aI0
aI0
aI0
aI0
aI0
aI0
aI0
aI0
aI0
aI0
aI0
aI0
aI0
aI0
aI0
aI0
aI0
aI0
aI0
aI0
aI0
aI0
aI0
aI0
aI0
aI0
aI0
aI0
aI0
aI0
aI0
aI0
aI0
aI0
aI0
aI0
aI0
aI0
aI0
aI0
aI0
aI0
aI0
aI0
aI0
aI0
aI0
aI0
aI0
aI0
aI0
aI0
aI0
aI0
aI0
aI0
aI0
aI0
aI0
aI0
aI0
aI0
aI0
aI0
aI0
aI0
aI0
aI0
aI0
aI0
aI0
aI0
aI0
aI0
aI0
aI0
aI0
aI0
aI0
aI0
aI0
aI0
aI0
aI0
aI0
aI0
aI0
aI0
aI0
aI0
aI0
aI0
aI0
aI0
aI0
aI0
aI0
aI0
aI0
aI0
aI0
aI0
aI0
aI0
aI0
aI0
aI0
aI0
aI0
aI0
aI0
aI0
aI0
aI0
aI0
aI0
aI0
aI0
aI0
aI0
aI0
aI0
aI0
aI0
aI0
aI0
aI0
aI0
aI0
aI0
aI0
aI0
aI0
aI0
aI0
aI0
aI0
aI0
aI0
aI0
aI0
aI0
aI0
aI0
aI0
aI0
aI0
aI0
aI0
aI0
aI0
aI0
aI0
aI0
aI0
aI0
aI0
aI0
aI0
aI0
aI0
aI0
aI0
aI0
aI0
aI0
aI0
aI0
aI0
aI0
aI0
aI0
aI0
aI0
aI0
aI0
aI0
aI0
aI0
aI0
aI0
aI0
aI0
aI0
aI0
aI0
aI0
aI0
aI0
aI0
aI0
aI0
aI0
aI0
aI0
aI0
aI0
aI0
aI0
aI0
aI0
aI0
aI0
aI0
aI0
aI0
aI0
aI0
aI0
aI0
aI0
aI0
aI0
aI0
aI0
aI0
aI0
aI0
aI0
aI0
aI0
aI0
aI0
aI0
aI0
aI0
aI0
aI0
aI0
aI0
aI0
aI0
aI0
aI0
aI0
aI0
aI0
aI0
aI0
aI0
aI0
aI0
aI0
aI0
aI0
aI0
aI0
aI0
aI0
aI0
aI0
aI0
aI0
aI0
aI0
aI0
aI0
aI0
aI0
aI0
aI0
aI0
aI0
aI0
aI0
aI0
aI0
aI0
aI0
aI0
aI0
aI0
aI0
aI0
aI0
aI0
aI0
aI0
aI0
aI0
aI0
aI0
aI0
aI0
aI0
aI0
aI0
aI0
aI0
aI0
aI0
aI0
aI0
aI0
aI0
aI0
aI0
aI0
aI0
aI0
aI0
aI0
aI0
aI0
aI0
aI0
aI0
aI0
aI0
aI0
aI0
aI0
aI0
aI0
aI0
aI0
aI0
aI0
aI0
aI0
aI0
aI0
aI0
aI0
aI0
aI0
aI0
aI0
aI0
aI0
aI0
aI0
aI0
aI0
aI0
aI0
aI0
aI0
aI0
aI0
aI0
aI0
aI0
aI0
aI0
aI0
aI0
aI0
aI0
aI0
aI0
aI0
aI0
aI0
aI0
aI0
aI0
aI0
aI0
aI0
aI0
aI0
aI0
aI0
aI0
aI0
aI0
aI0
aI0
aI0
aI0
aI0
aI0
aI0
aI0
aI0
aI0
aI0
aI0
aI0
aI0
aI0
aI0
aI0
aI0
aI0
aI0
aI0
aI0
aI0
aI0
aI0
aI0
aI0
aI0
aI0
aI0
aI0
aI0
aI0
aI0
aI0
aI0
aI0
aI0
aI0
aI0
aI0
aI0
aI0
aI0
aI0
aI0
aI0
aI0
aI0
aI0
aI0
aI0
aI0
aI0
aI0
aI0
aI0
aI0
aI0
aI0
aI0
aI0
aI0
aI0
aI0
aI0
aI0
aI0
aI0
aI0
aI0
aI0
aI0
aI0
aI0
aI0
aI0
aI0
aI0
aI0
aI0
aI0
aI0
aI0
aI0
aI0
aI0
aI0
aI0
aI0
aI0
aI0
aI0
aI0
aI0
aI0
aI0
aI0
aI0
aI0
aI0
aI0
aI0
aI0
aI0
aI0
aI0
aI0
aI0
aI0
aI0
aI0
aI0
aI0
aI0
aI0
aI0
aI0
aI0
aI0
aI0
aI0
aI0
aI0
aI0
aI0
aI0
aI0
aI0
aI0
aI0
aI0
aI0
aI0
aI0
aI0
aI0
aI0
aI0
aI0
aI0
aI0
aI0
aI0
aI0
aI0
aI0
aI0
aI0
aI0
aI0
aI0
aI0
aI0
aI0
aI0
aI0
aI0
aI0
aI0
aI0
aI0
aI0
aI0
aI0
aI0
aI0
aI0
aI0
aI0
aI0
aI0
aI0
aI0
aI0
aI0
aI0
aI0
aI0
aI0
aI0
aI0
aI0
aI0
aI0
aI0
aI0
aI0
aI0
aI0
aI0
aI0
aI0
aI0
aI0
aI0
aI0
aI0
aI0
aI0
aI0
aI0
aI0
aI0
aI0
aI0
aI0
aI0
aI0
aI0
aI0
aI0
aI0
aI0
aI0
aI0
aI0
aI0
aI0
aI0
aI0
aI0
aI0
aI0
aI0
aI0
aI0
aI0
aI0
aI0
aI0
aI0
aI0
aI0
aI0
aI0
aI0
aI0
aI0
aI0
aI0
aI0
aI0
aI0
aI0
aI0
aI0
aI0
aI0
aI0
aI0
aI0
aI0
aI0
aI0
aI0
aI0
aI0
aI0
aI0
aI0
aI0
aI0
aI0
aI0
aI0
aI0
aI0
aI0
aI0
aI0
aI0
aI0
aI0
aI0
aI0
aI0
aI0
aI0
aI0
aI0
aI0
aI0
aI0
aI0
aI0
aI0
aI0
aI0
aI0
aI0
aI0
aI0
aI0
aI0
aI0
aI0
aI0
aI0
aI0
aI0
aI0
aI0
aI0
aI0
aI0
aI0
aI0
aI0
aI0
aI0
aI0
aI0
aI0
aI0
aI0
aI0
aI0
aI0
aI0
aI0
aI0
aI0
aI0
aI0
aI0
aI0
aI0
aI0
aI0
aI0
aI0
aI0
aI0
aI0
aI0
aI0
aI0
aI0
aI0
aI0
aI0
aI0
aI0
aI0
aI0
aI0
aI0
aI0
aI0
aI0
aI0
aI0
aI0
aI0
aI0
aI0
aI0
aI0
aI0
aI0
aI0
aI0
aI0
aI0
aI0
aI0
aI0
aI0
aI0
aI0
aI0
aI0
aI0
aI0
aI0
aI0
aI0
aI0
aI0
aI0
aI0
aI0
aI0
aI0
aI0
aI0
aI0
aI0
aI0
aI0
aI0
aI0
aI0
aI0
aI0
aI0
aI0
aI0
aI0
aI0
aI0
aI0
aI0
aI0
aI0
aI0
aI0
aI0
aI0
aI0
aI0
aI0
aI0
aI0
aI0
aI0
aI0
aI0
aI0
aI0
aI0
aI0
aI0
aI0
aI0
aI0
aI0
aI0
aI0
aI0
aI0
aI0
aI0
aI0
aI0
aI0
aI0
aI0
aI0
aI0
aI0
aI0
aI0
aI0
aI0
aI0
aI0
aI0
aI0
aI0
aI0
aI0
aI0
aI0
aI0
aI0
aI0
aI0
aI0
aI0
aI0
aI0
aI0
aI0
aI0
aI0
aI0
aI0
aI0
aI0
aI0
aI0
aI0
aI0
aI0
aI0
aI0
aI0
aI0
aI0
aI0
aI0
aI0
aI0
aI0
aI0
aI0
aI0
aI0
aI0
aI0
aI0
aI0
aI0
aI0
aI0
aI0
aI0
aI0
aI0
aI0
aI0
aI0
aI0
aI0
aI0
aI0
aI0
aI0
aI0
aI0
aI0
aI0
aI0
aI0
aI0
aI0
aI0
aI0
aI0
aI0
aI0
aI0
aI0
aI0
aI0
aI0
aI0
aI0
aI0
aI0
aI0
aI0
aI0
aI0
aI0
aI0
aI0
aI0
aI0
aI0
aI0
aI0
aI0
aI0
aI0
aI0
aI0
aI0
aI0
aI0
aI0
aI0
aI0
aI0
aI0
aI0
aI0
aI0
aI0
aI0
aI0
aI0
aI0
aI0
aI0
aI0
aI0
aI0
aI0
aI0
aI0
aI0
aI0
aI0
aI0
aI0
aI0
aI0
aI0
aI0
aI0
aI0
aI0
aI0
aI0
aI0
aI0
aI0
aI0
aI0
aI0
aI0
aI0
aI0
aI0
aI0
aI0
aI0
aI0
aI0
aI0
aI0
aI0
aI0
aI0
aI0
aI0
aI0
aI0
aI0
aI0
aI0
aI0
aI0
aI0
aI0
aI0
aI0
aI0
aI0
aI0
aI0
aI0
aI0
aI0
aI0
aI0
aI0
aI0
aI0
aI0
aI0
aI0
aI0
aI0
aI0
aI0
aI0
aI0
aI0
aI0
aI0
aI0
aI0
aI0
aI0
aI0
aI0
aI0
aI0
aI0
aI0
aI0
aI0
aI0
aI0
aI0
aI0
aI0
aI0
aI0
aI0
aI0
aI0
aI0
aI0
aI0
aI0
aI0
aI0
aI0
aI0
aI0
aI0
aI0
aI0
aI0
aI0
aI0
aI0
aI0
aI0
aI0
aI0
aI0
aI0
aI0
aI0
aI0
aI0
aI0
aI0
aI0
aI0
aI0
aI0
aI0
aI0
aI0
aI0
aI0
aI0
aI0
aI0
aI0
aI0
aI0
aI0
aI0
aI0
aI0
aI0
aI0
aI0
aI0
aI0
aI0
aI0
aI0
aI0
aI0
aI0
aI0
aI0
aI0
aI0
aI0
aI0
aI0
aI0
aI0
aI0
aI0
aI0
aI0
aI0
aI0
aI0
aI0
aI0
aI0
aI0
aI0
aI0
aI0
aI0
aI0
aI0
aI0
aI0
aI0
aI0
aI0
aI0
aI0
aI0
aI0
aI0
aI0
aI0
aI0
aI0
aI0
aI0
aI0
aI0
aI0
aI0
aI0
aI0
aI0
aI0
aI0
aI0
aI0
aI0
aI0
aI0
aI0
aI0
aI0
aI0
aI0
aI0
aI0
aI0
aI0
aI0
aI0
aI0
aI0
aI0
aI0
aI0
aI0
aI0
aI0
aI0
aI0
aI0
aI0
aI0
aI0
aI0
aI0
aI0
aI0
aI0
aI0
aI0
aI0
aI0
aI0
aI0
aI0
aI0
aI0
aI0
aI0
aI0
aI0
aI0
aI0
aI0
aI0
aI0
aI0
aI0
aI0
aI0
aI0
aI0
aI0
aI0
aI0
aI0
aI0
aI0
aI0
aI0
aI0
aI0
aI0
aI0
aI0
aI0
aI0
aI0
aI0
aI0
aI0
aI0
aI0
aI0
aI0
aI0
aI0
aI0
aI0
aI0
aI0
aI0
aI0
aI0
aI0
aI0
aI0
aI0
aI0
aI0
aI0
aI0
aI0
aI0
aI0
aI0
aI0
aI0
aI0
aI0
aI0
aI0
aI0
aI0
aI0
aI0
aI0
aI0
aI0
aI0
aI0
aI0
aI0
aI0
aI0
aI0
aI0
aI0
aI0
aI0
aI0
aI0
aI0
aI0
aI0
aI0
aI0
aI0
aI0
aI0
aI0
aI0
aI0
aI0
aI0
aI0
aI0
aI0
aI0
aI0
aI0
aI0
aI0
aI0
aI0
aI0
aI0
aI0
aI0
aI0
aI0
aI0
aI0
aI0
aI0
aI0
aI0
aI0
aI0
aI0
aI0
aI0
aI0
aI0
aI0
aI0
aI0
aI0
aI0
aI0
aI0
aI0
aI0
aI0
aI0
aI0
aI0
aI0
aI0
aI0
aI0
aI0
aI0
aI0
aI0
aI0
aI0
aI0
aI0
aI0
aI0
aI0
aI0
aI0
aI0
aI0
aI0
aI0
aI0
aI0
aI0
aI0
aI0
aI0
aI0
aI0
aI0
aI0
aI0
aI0
aI0
aI0
aI0
aI0
aI0
aI0
aI0
aI0
aI0
aI0
aI0
aI0
aI0
aI0
aI0
aI0
aI0
aI0
aI0
aI0
aI0
aI0
aI0
aI0
aI0
aI0
aI0
aI0
aI0
aI0
aI0
aI0
aI0
aI0
aI0
aI0
aI0
aI0
aI0
aI0
aI0
aI0
aI0
aI0
aI0
aI0
aI0
aI0
aI0
aI0
aI0
aI0
aI0
aI0
aI0
aI0
aI0
aI0
aI0
aI0
aI0
aI0
aI0
aI0
aI0
aI0
aI0
aI0
aI0
aI0
aI0
aI0
aI0
aI0
aI0
aI0
aI0
aI0
aI0
aI0
aI0
aI0
aI0
aI0
aI0
aI0
aI0
aI0
aI0
aI0
aI0
aI0
aI0
aI0
aI0
aI0
aI0
aI0
aI0
aI0
aI0
aI0
aI0
aI0
aI0
aI0
aI0
aI0
aI0
aI0
aI0
aI0
aI0
aI0
aI0
aI0
aI0
aI0
aI0
aI0
aI0
aI0
aI0
aI0
aI0
aI0
aI0
aI0
aI0
aI0
aI0
aI0
aI0
aI0
aI0
aI0
aI0
aI0
aI0
aI0
aI0
aI0
aI0
aI0
aI0
aI0
aI0
aI0
aI0
aI0
aI0
aI0
aI0
aI0
aI0
aI0
aI0
aI0
aI0
aI0
aI0
aI0
aI0
aI0
aI0
aI0
aI0
aI0
aI0
aI0
aI0
aI0
aI0
aI0
aI0
aI0
aI0
aI0
aI0
aI0
aI0
aI0
aI0
aI0
aI0
aI0
aI0
aI0
aI0
aI0
aI0
aI0
aI0
aI0
aI0
aI0
aI0
aI0
aI0
aI0
aI0
aI0
aI0
aI0
aI0
aI0
aI0
aI0
aI0
aI0
aI0
aI0
aI0
aI0
aI0
aI0
aI0
aI0
aI0
aI0
aI0
aI0
aI0
aI0
aI0
aI0
aI0
aI0
aI0
aI0
aI0
aI0
aI0
aI0
aI0
aI0
aI0
aI0
aI0
aI0
aI0
aI0
aI0
aI0
aI0
aI0
aI0
aI0
aI0
aI0
aI0
aI0
aI0
aI0
aI0
aI0
aa.