(lp0
(lp1
NaNaNaNaNaNaNaNaNaNaNaNaNaNaNaNaNaNaNaNaNaNaNaNaNaNaNaNaNaNaNaNaNaNaNaNaNaNaNaNaNaNaNaNaNaNaNaNaNaNaNaNaNaNaNaNaNaNaNaNaNaNaNaNaNaNaNaNaNaNaNaNaNaNaNaNaNaNaNaNaNaNaNaNaNaNaNaNaNaNaNaNaNaNaNaNaNaNaNaNaNaNaNaNaNaNaNaNaNaNaNaNaNaNaNaNaNaNaNaNaNaNaNaNaNaNaNaNaNaNaNaNaNaNaNaNaNaNaNaNaNaNaNaNaNaNaNaNaNaS'someone like you'
p2
aS'style'
p3
aS'new romantics'
p4
aS'anything is possible'
p5
aS'poker face'
p6
aS'stan'
p7
aS'firework'
p8
aS'faded'
p9
aS'fireflies'
p10
aS'call me maybe'
p11
aS'shape of you'
p12
aS'hot n cold'
p13
aS'halo'
p14
aS'hung up'
p15
aS'earthquake'
p16
aS'obsessed'
p17
aS'work from home'
p18
aS'sorry'
p19
aS'our song'
p20
aS'sugar'
p21
aS'beautiful'
p22
aS'unfaithful'
p23
aS'wrecking ball'
p24
aS'this love'
p25
aS'thinking out loud'
p26
aS"don't let me down"
p27
aS'closer'
p28
aS'i knew you were trouble'
p29
aS'what do you mean?'
p30
aS'burn'
p31
aS'fight song'
p32
aS'cheap thrills'
p33
aS'problem'
p34
aS'side to side'
p35
aS'this is what you came for'
p36
aS'we dont talk anymore'
p37
aS'a thousand years'
p38
aS'hymn for the weekend'
p39
aS'dessert'
p40
aS'love me like you do'
p41
aS'starving'
p42
aS'rock bottom'
p43
aS'beauty and a beat'
p44
aS'love yourself'
p45
aS'mistletoe'
p46
aS'sorry'
p47
aS'undiscovered'
p48
aS'all my love'
p49
aS'uptown funk'
p50
aS'all about that bass'
p51
aS'i took a pill in ibiza'
p52
aS'best song ever'
p53
aS'happy'
p54
aS'night changes'
p55
aS'perfect'
p56
aS'stand by you'
p57
aS'dancing in the dark'
p58
aS'work '
p59
aS'safe and sound'
p60
aS'the heart wants what it wants'
p61
aS'shine your way'
p62
aS'treat you better'
p63
aS'shout out to my ex'
p64
aS'chandelier'
p65
aS'blank space'
p66
aS'shake it off'
p67
aS'bad blood'
p68
aS'my heart will go on'
p69
aS'everyday'
p70
aS'one last night'
p71
aS'something just like this'
p72
aS'i dont wanna live forever'
p73
aS'rockabye'
p74
aS'believer '
p75
aS'cold'
p76
aS'say you wont let go'
p77
aS'it aint me'
p78
aS'paris'
p79
aS'mercy'
p80
aS'strings'
p81
aS'stitches'
p82
aS'aftertaste'
p83
aS'crazy'
p84
aS'let it go'
p85
aS'million reasons'
p86
aS'green light'
p87
aS'tunnel vision'
p88
aS'bad things'
p89
aS'regret in your tears'
p90
aS'rolex'
p91
aS'hurricane'
p92
aS'castle on the hill'
p93
aS'heavy'
p94
aS'thumbs'
p95
aS'see you again'
p96
aS'drag me down'
p97
aS'counting stars'
p98
aS'bad blood'
p99
aS'alone'
p100
aS'same old love'
p101
aS'i know what you did last summer'
p102
aS'cold water'
p103
aS'history'
p104
aS'roar'
p105
aS'fireworks'
p106
aS'hello'
p107
aS'pillowtalk'
p108
aS'slide'
p109
aS'hometown girl'
p110
aS'darlin'
p111
aS'waka waka'
p112
aS'evergreen'
p113
aS'price tag'
p114
aS'bleeding love'
p115
aS'tik tok'
p116
aS'girlfriend'
p117
aS'blah blah blah'
p118
aS'i kissed a girl'
p119
aS'party in the usa'
p120
aS'toxic'
p121
aS'barbie girl'
p122
aS'so what'
p123
aS'give me everything'
p124
aS'bad romance'
p125
aS'hero'
p126
aS'just dance'
p127
aS'stan'
p128
aS'titanium'
p129
aS'airplanes'
p130
aS'omg'
p131
aS'rude boy'
p132
aS'beautiful people'
p133
aS'lego house'
p134
aS'angel with a shotgun'
p135
aS'human'
p136
aS'Friday'
p137
aS'patience'
p138
aS'teenage dirtbag'
p139
aS'bounce'
p140
aS'only girl'
p141
aS'whats my name'
p142
aS'we fond love'
p143
aS'diamonds'
p144
aS'rolling in the deep'
p145
aS'on the floor'
p146
aS'grenade'
p147
aS'just the way you are'
p148
aS'single ladies'
p149
aaI0
aI0
aI0
a(lp150
I0
aI0
aI0
aI0
aI0
aI0
aI0
aI0
aI0
aI0
aI0
aI0
aI0
aI0
aI0
aI0
aI0
aI0
aI0
aI0
aI0
aI0
aI0
aI0
aI0
aI0
aI0
aI0
aI0
aI0
aI0
aI0
aI0
aI0
aI0
aI0
aI0
aI0
aI0
aI0
aI0
aI0
aI0
aI0
aI0
aI0
aI0
aI0
aI0
aI0
aI0
aI0
aI0
aI0
aI0
aI0
aI0
aI0
aI0
aI0
aI0
aI0
aI0
aI0
aI0
aI0
aI0
aI0
aI0
aI0
aI0
aI0
aI0
aI0
aI0
aI0
aI0
aI0
aI0
aI0
aI0
aI0
aI0
aI0
aI0
aI0
aI0
aI0
aI0
aI0
aI0
aI0
aI0
aI0
aI0
aI0
aI0
aI0
aI0
aI0
aI0
aI0
aI0
aI0
aI0
aI0
aI0
aI0
aI0
aI0
aI0
aI0
aI0
aI0
aI0
aI0
aI0
aI0
aI0
aI0
aI0
aI0
aI0
aI0
aI0
aI0
aI0
aI0
aI0
aI0
aI0
aI0
aI0
aI0
aI0
aI0
aI0
aI0
aI0
aI0
aI0
aI0
aI0
aI0
aI0
aI0
aI0
aI0
aI0
aI0
aI0
aI0
aI0
aI0
aI0
aI0
aI0
aI0
aI0
aI0
aI0
aI0
aI0
aI0
aI0
aI0
aI0
aI0
aI0
aI0
aI0
aI0
aI0
aI0
aI0
aI0
aI0
aI0
aI0
aI0
aI0
aI0
aI0
aI0
aI0
aI0
aI0
aI0
aI0
aI0
aI0
aI0
aI0
aI0
aI0
aI0
aI0
aI0
aI0
aI0
aI0
aI0
aI0
aI0
aI0
aI0
aI0
aI0
aI0
aI0
aI0
aI0
aI0
aI0
aI0
aI0
aI0
aI0
aI0
aI0
aI0
aI0
aI0
aI0
aI0
aI0
aI0
aI0
aI0
aI0
aI0
aI0
aI0
aI0
aI0
aI0
aI0
aI0
aI0
aI0
aI0
aI0
aI0
aI0
aI0
aI0
aI0
aI0
aI0
aI0
aI0
aI0
aI0
aI0
aI0
aI0
aI0
aI0
aI0
aI0
aI0
aI0
aI0
aI0
aI0
aI0
aI0
aI0
aI0
aI0
aI0
aI0
aI0
aI0
aI0
aI0
aI0
aI0
aI0
aI0
aI0
aI0
aI0
aI0
aI0
aI0
aI0
aI0
aI0
aI0
aI0
aI0
aI0
aI0
aI0
aI0
aI0
aa.